
qt7-dig-gain4.elf:     file format elf32-avr

Sections:
Idx Name          Size      VMA       LMA       File off  Algn
  0 .data         00000154  00804000  00002e4a  00002ede  2**0
                  CONTENTS, ALLOC, LOAD, DATA
  1 .text         00002e4a  00000000  00000000  00000094  2**1
                  CONTENTS, ALLOC, LOAD, READONLY, CODE
  2 .bss          000000da  00804154  00804154  00003032  2**0
                  ALLOC
  3 .comment      0000008c  00000000  00000000  00003032  2**0
                  CONTENTS, READONLY
  4 .note.gnu.avr.deviceinfo 00000040  00000000  00000000  000030c0  2**2
                  CONTENTS, READONLY
  5 .debug_aranges 000002b8  00000000  00000000  00003100  2**3
                  CONTENTS, READONLY, DEBUGGING
  6 .debug_info   0000707a  00000000  00000000  000033b8  2**0
                  CONTENTS, READONLY, DEBUGGING
  7 .debug_abbrev 0000384c  00000000  00000000  0000a432  2**0
                  CONTENTS, READONLY, DEBUGGING
  8 .debug_line   000018d7  00000000  00000000  0000dc7e  2**0
                  CONTENTS, READONLY, DEBUGGING
  9 .debug_frame  00000570  00000000  00000000  0000f558  2**2
                  CONTENTS, READONLY, DEBUGGING
 10 .debug_str    00003492  00000000  00000000  0000fac8  2**0
                  CONTENTS, READONLY, DEBUGGING
 11 .debug_loc    0000123c  00000000  00000000  00012f5a  2**0
                  CONTENTS, READONLY, DEBUGGING
 12 .debug_ranges 000001d8  00000000  00000000  00014196  2**0
                  CONTENTS, READONLY, DEBUGGING

Disassembly of section .text:

00000000 <__vectors>:
       0:	0c 94 74 00 	jmp	0xe8	; 0xe8 <__ctors_end>
       4:	0c 94 93 00 	jmp	0x126	; 0x126 <__bad_interrupt>
       8:	0c 94 93 00 	jmp	0x126	; 0x126 <__bad_interrupt>
       c:	0c 94 9a 00 	jmp	0x134	; 0x134 <__vector_3>
      10:	0c 94 93 00 	jmp	0x126	; 0x126 <__bad_interrupt>
      14:	0c 94 93 00 	jmp	0x126	; 0x126 <__bad_interrupt>
      18:	0c 94 93 00 	jmp	0x126	; 0x126 <__bad_interrupt>
      1c:	0c 94 93 00 	jmp	0x126	; 0x126 <__bad_interrupt>
      20:	0c 94 93 00 	jmp	0x126	; 0x126 <__bad_interrupt>
      24:	0c 94 93 00 	jmp	0x126	; 0x126 <__bad_interrupt>
      28:	0c 94 93 00 	jmp	0x126	; 0x126 <__bad_interrupt>
      2c:	0c 94 93 00 	jmp	0x126	; 0x126 <__bad_interrupt>
      30:	0c 94 93 00 	jmp	0x126	; 0x126 <__bad_interrupt>
      34:	0c 94 93 00 	jmp	0x126	; 0x126 <__bad_interrupt>
      38:	0c 94 93 00 	jmp	0x126	; 0x126 <__bad_interrupt>
      3c:	0c 94 93 00 	jmp	0x126	; 0x126 <__bad_interrupt>
      40:	0c 94 93 00 	jmp	0x126	; 0x126 <__bad_interrupt>
      44:	0c 94 93 00 	jmp	0x126	; 0x126 <__bad_interrupt>
      48:	0c 94 93 00 	jmp	0x126	; 0x126 <__bad_interrupt>
      4c:	0c 94 93 00 	jmp	0x126	; 0x126 <__bad_interrupt>
      50:	0c 94 93 00 	jmp	0x126	; 0x126 <__bad_interrupt>
      54:	0c 94 93 00 	jmp	0x126	; 0x126 <__bad_interrupt>
      58:	0c 94 93 00 	jmp	0x126	; 0x126 <__bad_interrupt>
      5c:	0c 94 93 00 	jmp	0x126	; 0x126 <__bad_interrupt>
      60:	0c 94 93 00 	jmp	0x126	; 0x126 <__bad_interrupt>
      64:	0c 94 93 00 	jmp	0x126	; 0x126 <__bad_interrupt>
      68:	0c 94 93 00 	jmp	0x126	; 0x126 <__bad_interrupt>
      6c:	0c 94 b8 03 	jmp	0x770	; 0x770 <__vector_27>
      70:	0c 94 93 00 	jmp	0x126	; 0x126 <__bad_interrupt>
      74:	0c 94 93 00 	jmp	0x126	; 0x126 <__bad_interrupt>
      78:	0c 94 93 00 	jmp	0x126	; 0x126 <__bad_interrupt>
      7c:	0c 94 93 00 	jmp	0x126	; 0x126 <__bad_interrupt>
      80:	0c 94 93 00 	jmp	0x126	; 0x126 <__bad_interrupt>
      84:	0c 94 93 00 	jmp	0x126	; 0x126 <__bad_interrupt>
      88:	0c 94 93 00 	jmp	0x126	; 0x126 <__bad_interrupt>
      8c:	0c 94 93 00 	jmp	0x126	; 0x126 <__bad_interrupt>
      90:	0c 94 93 00 	jmp	0x126	; 0x126 <__bad_interrupt>
      94:	0c 94 93 00 	jmp	0x126	; 0x126 <__bad_interrupt>
      98:	0c 94 93 00 	jmp	0x126	; 0x126 <__bad_interrupt>
      9c:	0c 94 93 00 	jmp	0x126	; 0x126 <__bad_interrupt>
      a0:	0c 94 93 00 	jmp	0x126	; 0x126 <__bad_interrupt>
      a4:	0c 94 93 00 	jmp	0x126	; 0x126 <__bad_interrupt>
      a8:	0c 94 93 00 	jmp	0x126	; 0x126 <__bad_interrupt>
      ac:	0c 94 93 00 	jmp	0x126	; 0x126 <__bad_interrupt>
      b0:	0c 94 93 00 	jmp	0x126	; 0x126 <__bad_interrupt>
      b4:	0c 94 93 00 	jmp	0x126	; 0x126 <__bad_interrupt>
      b8:	0c 94 93 00 	jmp	0x126	; 0x126 <__bad_interrupt>
      bc:	0c 94 93 00 	jmp	0x126	; 0x126 <__bad_interrupt>
      c0:	0c 94 93 00 	jmp	0x126	; 0x126 <__bad_interrupt>
      c4:	0c 94 93 00 	jmp	0x126	; 0x126 <__bad_interrupt>
      c8:	0c 94 93 00 	jmp	0x126	; 0x126 <__bad_interrupt>
      cc:	0c 94 93 00 	jmp	0x126	; 0x126 <__bad_interrupt>
      d0:	0c 94 93 00 	jmp	0x126	; 0x126 <__bad_interrupt>
      d4:	0c 94 93 00 	jmp	0x126	; 0x126 <__bad_interrupt>
      d8:	0c 94 93 00 	jmp	0x126	; 0x126 <__bad_interrupt>
      dc:	0c 94 93 00 	jmp	0x126	; 0x126 <__bad_interrupt>
      e0:	0c 94 93 00 	jmp	0x126	; 0x126 <__bad_interrupt>
      e4:	0c 94 93 00 	jmp	0x126	; 0x126 <__bad_interrupt>

000000e8 <__ctors_end>:
      e8:	11 24       	eor	r1, r1
      ea:	1f be       	out	0x3f, r1	; 63
      ec:	cf ef       	ldi	r28, 0xFF	; 255
      ee:	cd bf       	out	0x3d, r28	; 61
      f0:	df e7       	ldi	r29, 0x7F	; 127
      f2:	de bf       	out	0x3e, r29	; 62

000000f4 <__do_copy_data>:
      f4:	11 e4       	ldi	r17, 0x41	; 65
      f6:	a0 e0       	ldi	r26, 0x00	; 0
      f8:	b0 e4       	ldi	r27, 0x40	; 64
      fa:	ea e4       	ldi	r30, 0x4A	; 74
      fc:	fe e2       	ldi	r31, 0x2E	; 46
      fe:	00 e0       	ldi	r16, 0x00	; 0
     100:	0b bf       	out	0x3b, r16	; 59
     102:	02 c0       	rjmp	.+4      	; 0x108 <__do_copy_data+0x14>
     104:	07 90       	elpm	r0, Z+
     106:	0d 92       	st	X+, r0
     108:	a4 35       	cpi	r26, 0x54	; 84
     10a:	b1 07       	cpc	r27, r17
     10c:	d9 f7       	brne	.-10     	; 0x104 <__do_copy_data+0x10>

0000010e <__do_clear_bss>:
     10e:	22 e4       	ldi	r18, 0x42	; 66
     110:	a4 e5       	ldi	r26, 0x54	; 84
     112:	b1 e4       	ldi	r27, 0x41	; 65
     114:	01 c0       	rjmp	.+2      	; 0x118 <.do_clear_bss_start>

00000116 <.do_clear_bss_loop>:
     116:	1d 92       	st	X+, r1

00000118 <.do_clear_bss_start>:
     118:	ae 32       	cpi	r26, 0x2E	; 46
     11a:	b2 07       	cpc	r27, r18
     11c:	e1 f7       	brne	.-8      	; 0x116 <.do_clear_bss_loop>
     11e:	0e 94 1e 01 	call	0x23c	; 0x23c <main>
     122:	0c 94 23 17 	jmp	0x2e46	; 0x2e46 <_exit>

00000126 <__bad_interrupt>:
     126:	0c 94 00 00 	jmp	0	; 0x0 <__vectors>

0000012a <atmel_start_init>:
/**
 * Initializes MCU, drivers and middleware in the project
 **/
void atmel_start_init(void)
{
	system_init();
     12a:	0e 94 31 04 	call	0x862	; 0x862 <system_init>

	touch_init();
     12e:	0e 94 8f 02 	call	0x51e	; 0x51e <touch_init>
     132:	08 95       	ret

00000134 <__vector_3>:

#include <driver_init.h>
#include <compiler.h>

ISR(RTC_CNT_vect)
{
     134:	1f 92       	push	r1
     136:	0f 92       	push	r0
     138:	0f b6       	in	r0, 0x3f	; 63
     13a:	0f 92       	push	r0
     13c:	11 24       	eor	r1, r1
     13e:	0b b6       	in	r0, 0x3b	; 59
     140:	0f 92       	push	r0
     142:	2f 93       	push	r18
     144:	3f 93       	push	r19
     146:	4f 93       	push	r20
     148:	5f 93       	push	r21
     14a:	6f 93       	push	r22
     14c:	7f 93       	push	r23
     14e:	8f 93       	push	r24
     150:	9f 93       	push	r25
     152:	af 93       	push	r26
     154:	bf 93       	push	r27
     156:	ef 93       	push	r30
     158:	ff 93       	push	r31

	/* Insert your RTC Compare interrupt handling code */
	touch_timer_handler();
     15a:	0e 94 4d 03 	call	0x69a	; 0x69a <touch_timer_handler>

	/* Compare interrupt flag has to be cleared manually */
	RTC.INTFLAGS = RTC_CMP_bm;
     15e:	82 e0       	ldi	r24, 0x02	; 2
     160:	80 93 43 01 	sts	0x0143, r24	; 0x800143 <__TEXT_REGION_LENGTH__+0x7e0143>
}
     164:	ff 91       	pop	r31
     166:	ef 91       	pop	r30
     168:	bf 91       	pop	r27
     16a:	af 91       	pop	r26
     16c:	9f 91       	pop	r25
     16e:	8f 91       	pop	r24
     170:	7f 91       	pop	r23
     172:	6f 91       	pop	r22
     174:	5f 91       	pop	r21
     176:	4f 91       	pop	r20
     178:	3f 91       	pop	r19
     17a:	2f 91       	pop	r18
     17c:	0f 90       	pop	r0
     17e:	0b be       	out	0x3b, r0	; 59
     180:	0f 90       	pop	r0
     182:	0f be       	out	0x3f, r0	; 63
     184:	0f 90       	pop	r0
     186:	1f 90       	pop	r1
     188:	18 95       	reti

0000018a <touch_status_display1>:
Output : none
Notes  : none
============================================================================*/
void touch_status_display1(void)
{
	key_status1 = get_sensor_state(0) & 0x80;
     18a:	80 e0       	ldi	r24, 0x00	; 0
     18c:	90 e0       	ldi	r25, 0x00	; 0
     18e:	0e 94 86 03 	call	0x70c	; 0x70c <get_sensor_state>
     192:	80 78       	andi	r24, 0x80	; 128
     194:	80 93 57 41 	sts	0x4157, r24	; 0x804157 <key_status1>
	if (0u != key_status1) {
     198:	88 23       	and	r24, r24
     19a:	11 f0       	breq	.+4      	; 0x1a0 <touch_status_display1+0x16>
static inline void PORTD_set_pin_level(const uint8_t pin, const bool level)
{
	if (level == true) {
		VPORTD.OUT |= (1 << pin);
	} else {
		VPORTD.OUT &= ~(1 << pin);
     19c:	6e 98       	cbi	0x0d, 6	; 13
     19e:	01 c0       	rjmp	.+2      	; 0x1a2 <touch_status_display1+0x18>
 *                  false = Pin level set to "low" state
 */
static inline void PORTD_set_pin_level(const uint8_t pin, const bool level)
{
	if (level == true) {
		VPORTD.OUT |= (1 << pin);
     1a0:	6e 9a       	sbi	0x0d, 6	; 13
		LED_6_set_level(false);
	} else {
		LED_6_set_level(true);
	}
	key_status1 = get_sensor_state(1) & 0x80;
     1a2:	81 e0       	ldi	r24, 0x01	; 1
     1a4:	90 e0       	ldi	r25, 0x00	; 0
     1a6:	0e 94 86 03 	call	0x70c	; 0x70c <get_sensor_state>
     1aa:	80 78       	andi	r24, 0x80	; 128
     1ac:	80 93 57 41 	sts	0x4157, r24	; 0x804157 <key_status1>
	if (0u != key_status1) {
     1b0:	88 23       	and	r24, r24
     1b2:	11 f0       	breq	.+4      	; 0x1b8 <touch_status_display1+0x2e>
static inline void PORTC_set_pin_level(const uint8_t pin, const bool level)
{
	if (level == true) {
		VPORTC.OUT |= (1 << pin);
	} else {
		VPORTC.OUT &= ~(1 << pin);
     1b4:	4a 98       	cbi	0x09, 2	; 9
     1b6:	01 c0       	rjmp	.+2      	; 0x1ba <touch_status_display1+0x30>
 *                  false = Pin level set to "low" state
 */
static inline void PORTC_set_pin_level(const uint8_t pin, const bool level)
{
	if (level == true) {
		VPORTC.OUT |= (1 << pin);
     1b8:	4a 9a       	sbi	0x09, 2	; 9
		LED_7_set_level(false);
	} else {
		LED_7_set_level(true);
	}

	scroller_status1   = get_scroller_state(0);
     1ba:	80 e0       	ldi	r24, 0x00	; 0
     1bc:	90 e0       	ldi	r25, 0x00	; 0
     1be:	0e 94 95 03 	call	0x72a	; 0x72a <get_scroller_state>
     1c2:	80 93 56 41 	sts	0x4156, r24	; 0x804156 <scroller_status1>
	scroller_position1 = get_scroller_position(0);
     1c6:	80 e0       	ldi	r24, 0x00	; 0
     1c8:	90 e0       	ldi	r25, 0x00	; 0
     1ca:	0e 94 a6 03 	call	0x74c	; 0x74c <get_scroller_position>
     1ce:	80 93 54 41 	sts	0x4154, r24	; 0x804154 <__data_end>
     1d2:	90 93 55 41 	sts	0x4155, r25	; 0x804155 <__data_end+0x1>
 *                  false = Pin level set to "low" state
 */
static inline void PORTA_set_pin_level(const uint8_t pin, const bool level)
{
	if (level == true) {
		VPORTA.OUT |= (1 << pin);
     1d6:	0d 9a       	sbi	0x01, 5	; 1
 *                  false = Pin level set to "low" state
 */
static inline void PORTC_set_pin_level(const uint8_t pin, const bool level)
{
	if (level == true) {
		VPORTC.OUT |= (1 << pin);
     1d8:	4b 9a       	sbi	0x09, 3	; 9
 *                  false = Pin level set to "low" state
 */
static inline void PORTA_set_pin_level(const uint8_t pin, const bool level)
{
	if (level == true) {
		VPORTA.OUT |= (1 << pin);
     1da:	0f 9a       	sbi	0x01, 7	; 1
 *                  false = Pin level set to "low" state
 */
static inline void PORTD_set_pin_level(const uint8_t pin, const bool level)
{
	if (level == true) {
		VPORTD.OUT |= (1 << pin);
     1dc:	6b 9a       	sbi	0x0d, 3	; 13
     1de:	6a 9a       	sbi	0x0d, 2	; 13
     1e0:	6c 9a       	sbi	0x0d, 4	; 13
	LED_2_set_level(true);
	LED_3_set_level(true);
	LED_4_set_level(true);
	LED_5_set_level(true);

	if (0u != scroller_status1) {
     1e2:	80 91 56 41 	lds	r24, 0x4156	; 0x804156 <scroller_status1>
     1e6:	88 23       	and	r24, r24
     1e8:	41 f1       	breq	.+80     	; 0x23a <__EEPROM_REGION_LENGTH__+0x3a>
	} else {
		VPORTD.OUT &= ~(1 << pin);
     1ea:	6c 98       	cbi	0x0d, 4	; 13

		LED_5_set_level(false);

		if (scroller_position1 > 43) {
     1ec:	80 91 54 41 	lds	r24, 0x4154	; 0x804154 <__data_end>
     1f0:	90 91 55 41 	lds	r25, 0x4155	; 0x804155 <__data_end+0x1>
     1f4:	8c 97       	sbiw	r24, 0x2c	; 44
     1f6:	08 f0       	brcs	.+2      	; 0x1fa <touch_status_display1+0x70>
     1f8:	6a 98       	cbi	0x0d, 2	; 13
			LED_4_set_level(false);
		}
		if (scroller_position1 > 85) {
     1fa:	80 91 54 41 	lds	r24, 0x4154	; 0x804154 <__data_end>
     1fe:	90 91 55 41 	lds	r25, 0x4155	; 0x804155 <__data_end+0x1>
     202:	86 35       	cpi	r24, 0x56	; 86
     204:	91 05       	cpc	r25, r1
     206:	08 f0       	brcs	.+2      	; 0x20a <__EEPROM_REGION_LENGTH__+0xa>
     208:	6b 98       	cbi	0x0d, 3	; 13
			LED_3_set_level(false);
		}
		if (scroller_position1 > 120) {
     20a:	80 91 54 41 	lds	r24, 0x4154	; 0x804154 <__data_end>
     20e:	90 91 55 41 	lds	r25, 0x4155	; 0x804155 <__data_end+0x1>
     212:	89 37       	cpi	r24, 0x79	; 121
     214:	91 05       	cpc	r25, r1
     216:	08 f0       	brcs	.+2      	; 0x21a <__EEPROM_REGION_LENGTH__+0x1a>
static inline void PORTA_set_pin_level(const uint8_t pin, const bool level)
{
	if (level == true) {
		VPORTA.OUT |= (1 << pin);
	} else {
		VPORTA.OUT &= ~(1 << pin);
     218:	0f 98       	cbi	0x01, 7	; 1
			LED_2_set_level(false);
		}
		if (scroller_position1 > 165) {
     21a:	80 91 54 41 	lds	r24, 0x4154	; 0x804154 <__data_end>
     21e:	90 91 55 41 	lds	r25, 0x4155	; 0x804155 <__data_end+0x1>
     222:	86 3a       	cpi	r24, 0xA6	; 166
     224:	91 05       	cpc	r25, r1
     226:	08 f0       	brcs	.+2      	; 0x22a <__EEPROM_REGION_LENGTH__+0x2a>
static inline void PORTC_set_pin_level(const uint8_t pin, const bool level)
{
	if (level == true) {
		VPORTC.OUT |= (1 << pin);
	} else {
		VPORTC.OUT &= ~(1 << pin);
     228:	4b 98       	cbi	0x09, 3	; 9
			LED_1_set_level(false);
		}
		if (scroller_position1 > 213) {
     22a:	80 91 54 41 	lds	r24, 0x4154	; 0x804154 <__data_end>
     22e:	90 91 55 41 	lds	r25, 0x4155	; 0x804155 <__data_end+0x1>
     232:	86 3d       	cpi	r24, 0xD6	; 214
     234:	91 05       	cpc	r25, r1
     236:	08 f0       	brcs	.+2      	; 0x23a <__EEPROM_REGION_LENGTH__+0x3a>
static inline void PORTA_set_pin_level(const uint8_t pin, const bool level)
{
	if (level == true) {
		VPORTA.OUT |= (1 << pin);
	} else {
		VPORTA.OUT &= ~(1 << pin);
     238:	0d 98       	cbi	0x01, 5	; 1
     23a:	08 95       	ret

0000023c <main>:
void touch_status_display1(void);

int main(void)
{
	/* Initializes MCU, drivers and middleware */
	atmel_start_init();
     23c:	0e 94 95 00 	call	0x12a	; 0x12a <atmel_start_init>

	/* Replace with your application code */
	while (1) {
		touch_process();
     240:	0e 94 fd 02 	call	0x5fa	; 0x5fa <touch_process>

		if (measurement_done_touch == 1) {
     244:	80 91 5c 41 	lds	r24, 0x415C	; 0x80415c <measurement_done_touch>
     248:	81 30       	cpi	r24, 0x01	; 1
     24a:	d1 f7       	brne	.-12     	; 0x240 <main+0x4>
			measurement_done_touch = 0;
     24c:	10 92 5c 41 	sts	0x415C, r1	; 0x80415c <measurement_done_touch>
			touch_status_display1();
     250:	0e 94 c5 00 	call	0x18a	; 0x18a <touch_status_display1>
     254:	f5 cf       	rjmp	.-22     	; 0x240 <main+0x4>

00000256 <datastreamer_init>:
Input  : none
Output : none
Notes  :
============================================================================*/
void datastreamer_init(void)
{
     256:	08 95       	ret

00000258 <datastreamer_transmit>:
Input  : Byte to be transmitted
Output : none
Notes  :
============================================================================*/
void datastreamer_transmit(uint8_t data_byte)
{
     258:	cf 93       	push	r28
     25a:	c8 2f       	mov	r28, r24
	while (!USART_is_tx_ready())
     25c:	0e 94 6f 04 	call	0x8de	; 0x8de <USART_is_tx_ready>
     260:	88 23       	and	r24, r24
     262:	e1 f3       	breq	.-8      	; 0x25c <datastreamer_transmit+0x4>
		;

	USART_write(data_byte);
     264:	8c 2f       	mov	r24, r28
     266:	0e 94 7d 04 	call	0x8fa	; 0x8fa <USART_write>

	while (USART_is_tx_busy())
     26a:	0e 94 75 04 	call	0x8ea	; 0x8ea <USART_is_tx_busy>
     26e:	81 11       	cpse	r24, r1
     270:	fc cf       	rjmp	.-8      	; 0x26a <datastreamer_transmit+0x12>
		;
}
     272:	cf 91       	pop	r28
     274:	08 95       	ret

00000276 <send_string>:

char tx_data[80];


void send_string(char *str_ptr)
{
     276:	cf 93       	push	r28
     278:	df 93       	push	r29
     27a:	ec 01       	movw	r28, r24
	
	char *tx_ptr;
	
	tx_ptr = str_ptr;
	
	while(*tx_ptr)
     27c:	88 81       	ld	r24, Y
     27e:	88 23       	and	r24, r24
     280:	31 f0       	breq	.+12     	; 0x28e <send_string+0x18>
     282:	21 96       	adiw	r28, 0x01	; 1
	 datastreamer_transmit((uint8_t)(*tx_ptr++));
     284:	0e 94 2c 01 	call	0x258	; 0x258 <datastreamer_transmit>
	
	char *tx_ptr;
	
	tx_ptr = str_ptr;
	
	while(*tx_ptr)
     288:	89 91       	ld	r24, Y+
     28a:	81 11       	cpse	r24, r1
     28c:	fb cf       	rjmp	.-10     	; 0x284 <send_string+0xe>
	 datastreamer_transmit((uint8_t)(*tx_ptr++));
	 
}
     28e:	df 91       	pop	r29
     290:	cf 91       	pop	r28
     292:	08 95       	ret

00000294 <ascii_output>:

void ascii_output(void)
{
     294:	4f 92       	push	r4
     296:	5f 92       	push	r5
     298:	6f 92       	push	r6
     29a:	7f 92       	push	r7
     29c:	8f 92       	push	r8
     29e:	9f 92       	push	r9
     2a0:	af 92       	push	r10
     2a2:	bf 92       	push	r11
     2a4:	cf 92       	push	r12
     2a6:	df 92       	push	r13
     2a8:	ef 92       	push	r14
     2aa:	ff 92       	push	r15
     2ac:	0f 93       	push	r16
     2ae:	1f 93       	push	r17
     2b0:	cf 93       	push	r28
     2b2:	df 93       	push	r29
	static uint8_t	sequence = 0;
	int16_t			touch_signal,touch_reference,touch_delta,comp_caps;
	uint8_t			channel_index,touch_state;
	
	
	send_string("0x55 ");
     2b4:	8e eb       	ldi	r24, 0xBE	; 190
     2b6:	90 e4       	ldi	r25, 0x40	; 64
     2b8:	0e 94 3b 01 	call	0x276	; 0x276 <send_string>
	sprintf(tx_data,"seq:%04d\r\n",sequence);
     2bc:	80 91 59 41 	lds	r24, 0x4159	; 0x804159 <sequence.5571>
     2c0:	1f 92       	push	r1
     2c2:	8f 93       	push	r24
     2c4:	84 ec       	ldi	r24, 0xC4	; 196
     2c6:	90 e4       	ldi	r25, 0x40	; 64
     2c8:	9f 93       	push	r25
     2ca:	8f 93       	push	r24
     2cc:	88 e6       	ldi	r24, 0x68	; 104
     2ce:	91 e4       	ldi	r25, 0x41	; 65
     2d0:	9f 93       	push	r25
     2d2:	8f 93       	push	r24
     2d4:	0e 94 46 14 	call	0x288c	; 0x288c <sprintf>
	send_string(tx_data);
     2d8:	88 e6       	ldi	r24, 0x68	; 104
     2da:	91 e4       	ldi	r25, 0x41	; 65
     2dc:	0e 94 3b 01 	call	0x276	; 0x276 <send_string>
     2e0:	0f 90       	pop	r0
     2e2:	0f 90       	pop	r0
     2e4:	0f 90       	pop	r0
     2e6:	0f 90       	pop	r0
     2e8:	0f 90       	pop	r0
     2ea:	0f 90       	pop	r0
     2ec:	00 e0       	ldi	r16, 0x00	; 0
     2ee:	10 e0       	ldi	r17, 0x00	; 0
	
	for(channel_index = 0;channel_index <DEF_NUM_CHANNELS;channel_index++ )
	{
		// tx channel id
		sprintf(tx_data,"ch:%04d ",channel_index);
     2f0:	0f 2e       	mov	r0, r31
     2f2:	ff ec       	ldi	r31, 0xCF	; 207
     2f4:	af 2e       	mov	r10, r31
     2f6:	f0 e4       	ldi	r31, 0x40	; 64
     2f8:	bf 2e       	mov	r11, r31
     2fa:	f0 2d       	mov	r31, r0
     2fc:	c8 e6       	ldi	r28, 0x68	; 104
     2fe:	d1 e4       	ldi	r29, 0x41	; 65
		send_string(tx_data);
		touch_signal = get_sensor_node_signal(channel_index);
		
		// tx signal value
		sprintf(tx_data,"sig:%04d ",touch_signal);
     300:	0f 2e       	mov	r0, r31
     302:	f8 ed       	ldi	r31, 0xD8	; 216
     304:	8f 2e       	mov	r8, r31
     306:	f0 e4       	ldi	r31, 0x40	; 64
     308:	9f 2e       	mov	r9, r31
     30a:	f0 2d       	mov	r31, r0
		send_string(tx_data);
		
		// tx reference
		touch_reference = get_sensor_node_reference(channel_index);
		sprintf(tx_data,"ref:%04d ",touch_reference);
     30c:	0f 2e       	mov	r0, r31
     30e:	f2 ee       	ldi	r31, 0xE2	; 226
     310:	6f 2e       	mov	r6, r31
     312:	f0 e4       	ldi	r31, 0x40	; 64
     314:	7f 2e       	mov	r7, r31
     316:	f0 2d       	mov	r31, r0
		send_string(tx_data);
		
		// tx delta
		touch_delta = touch_signal - touch_reference;
		sprintf(tx_data,"del:%04d ",touch_delta);
     318:	0f 2e       	mov	r0, r31
     31a:	fc ee       	ldi	r31, 0xEC	; 236
     31c:	4f 2e       	mov	r4, r31
     31e:	f0 e4       	ldi	r31, 0x40	; 64
     320:	5f 2e       	mov	r5, r31
     322:	f0 2d       	mov	r31, r0
	send_string(tx_data);
	
	for(channel_index = 0;channel_index <DEF_NUM_CHANNELS;channel_index++ )
	{
		// tx channel id
		sprintf(tx_data,"ch:%04d ",channel_index);
     324:	1f 93       	push	r17
     326:	0f 93       	push	r16
     328:	bf 92       	push	r11
     32a:	af 92       	push	r10
     32c:	df 93       	push	r29
     32e:	cf 93       	push	r28
     330:	0e 94 46 14 	call	0x288c	; 0x288c <sprintf>
		send_string(tx_data);
     334:	ce 01       	movw	r24, r28
     336:	0e 94 3b 01 	call	0x276	; 0x276 <send_string>
		touch_signal = get_sensor_node_signal(channel_index);
     33a:	c8 01       	movw	r24, r16
     33c:	0e 94 5f 03 	call	0x6be	; 0x6be <get_sensor_node_signal>
     340:	7c 01       	movw	r14, r24
		
		// tx signal value
		sprintf(tx_data,"sig:%04d ",touch_signal);
     342:	ff 92       	push	r15
     344:	8f 93       	push	r24
     346:	9f 92       	push	r9
     348:	8f 92       	push	r8
     34a:	df 93       	push	r29
     34c:	cf 93       	push	r28
     34e:	0e 94 46 14 	call	0x288c	; 0x288c <sprintf>
		send_string(tx_data);
     352:	ce 01       	movw	r24, r28
     354:	0e 94 3b 01 	call	0x276	; 0x276 <send_string>
		
		// tx reference
		touch_reference = get_sensor_node_reference(channel_index);
     358:	c8 01       	movw	r24, r16
     35a:	0e 94 6c 03 	call	0x6d8	; 0x6d8 <get_sensor_node_reference>
     35e:	6c 01       	movw	r12, r24
		sprintf(tx_data,"ref:%04d ",touch_reference);
     360:	df 92       	push	r13
     362:	8f 93       	push	r24
     364:	7f 92       	push	r7
     366:	6f 92       	push	r6
     368:	df 93       	push	r29
     36a:	cf 93       	push	r28
     36c:	0e 94 46 14 	call	0x288c	; 0x288c <sprintf>
		send_string(tx_data);
     370:	ce 01       	movw	r24, r28
     372:	0e 94 3b 01 	call	0x276	; 0x276 <send_string>
		
		// tx delta
		touch_delta = touch_signal - touch_reference;
		sprintf(tx_data,"del:%04d ",touch_delta);
     376:	ec 18       	sub	r14, r12
     378:	fd 08       	sbc	r15, r13
     37a:	ff 92       	push	r15
     37c:	ef 92       	push	r14
     37e:	5f 92       	push	r5
     380:	4f 92       	push	r4
     382:	df 93       	push	r29
     384:	cf 93       	push	r28
     386:	0e 94 46 14 	call	0x288c	; 0x288c <sprintf>
		send_string(tx_data);
     38a:	ce 01       	movw	r24, r28
     38c:	0e 94 3b 01 	call	0x276	; 0x276 <send_string>
		
		
		// transmit state
		
		touch_state = get_sensor_state(channel_index) & 0x80;
     390:	c8 01       	movw	r24, r16
     392:	0e 94 86 03 	call	0x70c	; 0x70c <get_sensor_state>
		if(touch_state)
     396:	2d b7       	in	r18, 0x3d	; 61
     398:	3e b7       	in	r19, 0x3e	; 62
     39a:	28 5e       	subi	r18, 0xE8	; 232
     39c:	3f 4f       	sbci	r19, 0xFF	; 255
     39e:	2d bf       	out	0x3d, r18	; 61
     3a0:	3e bf       	out	0x3e, r19	; 62
     3a2:	88 23       	and	r24, r24
     3a4:	2c f4       	brge	.+10     	; 0x3b0 <ascii_output+0x11c>
			send_string("on\r\n");
     3a6:	86 ef       	ldi	r24, 0xF6	; 246
     3a8:	90 e4       	ldi	r25, 0x40	; 64
     3aa:	0e 94 3b 01 	call	0x276	; 0x276 <send_string>
     3ae:	04 c0       	rjmp	.+8      	; 0x3b8 <ascii_output+0x124>
		else send_string("off\r\n");
     3b0:	8b ef       	ldi	r24, 0xFB	; 251
     3b2:	90 e4       	ldi	r25, 0x40	; 64
     3b4:	0e 94 3b 01 	call	0x276	; 0x276 <send_string>
     3b8:	0f 5f       	subi	r16, 0xFF	; 255
     3ba:	1f 4f       	sbci	r17, 0xFF	; 255
	
	send_string("0x55 ");
	sprintf(tx_data,"seq:%04d\r\n",sequence);
	send_string(tx_data);
	
	for(channel_index = 0;channel_index <DEF_NUM_CHANNELS;channel_index++ )
     3bc:	05 30       	cpi	r16, 0x05	; 5
     3be:	11 05       	cpc	r17, r1
     3c0:	09 f0       	breq	.+2      	; 0x3c4 <ascii_output+0x130>
     3c2:	b0 cf       	rjmp	.-160    	; 0x324 <ascii_output+0x90>
		if(touch_state)
			send_string("on\r\n");
		else send_string("off\r\n");
				
	}
	sequence++;
     3c4:	80 91 59 41 	lds	r24, 0x4159	; 0x804159 <sequence.5571>
     3c8:	8f 5f       	subi	r24, 0xFF	; 255
     3ca:	80 93 59 41 	sts	0x4159, r24	; 0x804159 <sequence.5571>
	send_string("0xAA \r\n");
     3ce:	81 e0       	ldi	r24, 0x01	; 1
     3d0:	91 e4       	ldi	r25, 0x41	; 65
     3d2:	0e 94 3b 01 	call	0x276	; 0x276 <send_string>
	
	
}
     3d6:	df 91       	pop	r29
     3d8:	cf 91       	pop	r28
     3da:	1f 91       	pop	r17
     3dc:	0f 91       	pop	r16
     3de:	ff 90       	pop	r15
     3e0:	ef 90       	pop	r14
     3e2:	df 90       	pop	r13
     3e4:	cf 90       	pop	r12
     3e6:	bf 90       	pop	r11
     3e8:	af 90       	pop	r10
     3ea:	9f 90       	pop	r9
     3ec:	8f 90       	pop	r8
     3ee:	7f 90       	pop	r7
     3f0:	6f 90       	pop	r6
     3f2:	5f 90       	pop	r5
     3f4:	4f 90       	pop	r4
     3f6:	08 95       	ret

000003f8 <byte_output>:




void byte_output(void)
{
     3f8:	0f 93       	push	r16
     3fa:	1f 93       	push	r17
     3fc:	cf 93       	push	r28
     3fe:	df 93       	push	r29
     400:	00 d0       	rcall	.+0      	; 0x402 <__LOCK_REGION_LENGTH__+0x2>
     402:	cd b7       	in	r28, 0x3d	; 61
     404:	de b7       	in	r29, 0x3e	; 62




	// Start token
	datastreamer_transmit(0x55);
     406:	85 e5       	ldi	r24, 0x55	; 85
     408:	0e 94 2c 01 	call	0x258	; 0x258 <datastreamer_transmit>

	// Frame Start
	datastreamer_transmit(sequence++);
     40c:	80 91 58 41 	lds	r24, 0x4158	; 0x804158 <sequence.5585>
     410:	91 e0       	ldi	r25, 0x01	; 1
     412:	98 0f       	add	r25, r24
     414:	90 93 58 41 	sts	0x4158, r25	; 0x804158 <sequence.5585>
     418:	0e 94 2c 01 	call	0x258	; 0x258 <datastreamer_transmit>
	for (count_bytes_out = 0u; count_bytes_out < DEF_NUM_CHANNELS; count_bytes_out++) {
     41c:	19 82       	std	Y+1, r1	; 0x01
     41e:	1a 82       	std	Y+2, r1	; 0x02
     420:	89 81       	ldd	r24, Y+1	; 0x01
     422:	9a 81       	ldd	r25, Y+2	; 0x02
     424:	05 97       	sbiw	r24, 0x05	; 5
     426:	08 f0       	brcs	.+2      	; 0x42a <__LOCK_REGION_LENGTH__+0x2a>
     428:	53 c0       	rjmp	.+166    	; 0x4d0 <__LOCK_REGION_LENGTH__+0xd0>

		/* Signals */
		u16temp_output = get_sensor_node_signal(count_bytes_out);
     42a:	89 81       	ldd	r24, Y+1	; 0x01
     42c:	9a 81       	ldd	r25, Y+2	; 0x02
     42e:	0e 94 5f 03 	call	0x6be	; 0x6be <get_sensor_node_signal>
     432:	19 2f       	mov	r17, r25
		datastreamer_transmit((uint8_t)u16temp_output);
     434:	0e 94 2c 01 	call	0x258	; 0x258 <datastreamer_transmit>
		datastreamer_transmit((uint8_t)(u16temp_output >> 8u));
     438:	81 2f       	mov	r24, r17
     43a:	0e 94 2c 01 	call	0x258	; 0x258 <datastreamer_transmit>

		/* Reference */
		u16temp_output = get_sensor_node_reference(count_bytes_out);
     43e:	89 81       	ldd	r24, Y+1	; 0x01
     440:	9a 81       	ldd	r25, Y+2	; 0x02
     442:	0e 94 6c 03 	call	0x6d8	; 0x6d8 <get_sensor_node_reference>
     446:	19 2f       	mov	r17, r25
		datastreamer_transmit((uint8_t)u16temp_output);
     448:	0e 94 2c 01 	call	0x258	; 0x258 <datastreamer_transmit>
		datastreamer_transmit((uint8_t)(u16temp_output >> 8u));
     44c:	81 2f       	mov	r24, r17
     44e:	0e 94 2c 01 	call	0x258	; 0x258 <datastreamer_transmit>

		/* Touch delta */
		temp_int_calc = get_sensor_node_signal(count_bytes_out);
     452:	89 81       	ldd	r24, Y+1	; 0x01
     454:	9a 81       	ldd	r25, Y+2	; 0x02
     456:	0e 94 5f 03 	call	0x6be	; 0x6be <get_sensor_node_signal>
     45a:	8c 01       	movw	r16, r24
		temp_int_calc -= get_sensor_node_reference(count_bytes_out);
     45c:	89 81       	ldd	r24, Y+1	; 0x01
     45e:	9a 81       	ldd	r25, Y+2	; 0x02
     460:	0e 94 6c 03 	call	0x6d8	; 0x6d8 <get_sensor_node_reference>
     464:	08 1b       	sub	r16, r24
     466:	19 0b       	sbc	r17, r25
		u16temp_output = (uint16_t)(temp_int_calc);
		datastreamer_transmit((uint8_t)u16temp_output);
     468:	80 2f       	mov	r24, r16
     46a:	0e 94 2c 01 	call	0x258	; 0x258 <datastreamer_transmit>
		datastreamer_transmit((uint8_t)(u16temp_output >> 8u));
     46e:	81 2f       	mov	r24, r17
     470:	0e 94 2c 01 	call	0x258	; 0x258 <datastreamer_transmit>

		/* Comp Caps */
		u16temp_output = get_sensor_cc_val(count_bytes_out);
     474:	89 81       	ldd	r24, Y+1	; 0x01
     476:	9a 81       	ldd	r25, Y+2	; 0x02
     478:	0e 94 79 03 	call	0x6f2	; 0x6f2 <get_sensor_cc_val>
     47c:	19 2f       	mov	r17, r25
		datastreamer_transmit((uint8_t)u16temp_output);
     47e:	0e 94 2c 01 	call	0x258	; 0x258 <datastreamer_transmit>
		datastreamer_transmit((uint8_t)(u16temp_output >> 8u));
     482:	81 2f       	mov	r24, r17
     484:	0e 94 2c 01 	call	0x258	; 0x258 <datastreamer_transmit>

*/


		/* State */
		u8temp_output = get_sensor_state(count_bytes_out);
     488:	89 81       	ldd	r24, Y+1	; 0x01
     48a:	9a 81       	ldd	r25, Y+2	; 0x02
     48c:	0e 94 86 03 	call	0x70c	; 0x70c <get_sensor_state>
		if (0u != (u8temp_output & 0x80)) {
     490:	88 23       	and	r24, r24
     492:	24 f4       	brge	.+8      	; 0x49c <__LOCK_REGION_LENGTH__+0x9c>
			datastreamer_transmit(0x01);
     494:	81 e0       	ldi	r24, 0x01	; 1
     496:	0e 94 2c 01 	call	0x258	; 0x258 <datastreamer_transmit>
     49a:	03 c0       	rjmp	.+6      	; 0x4a2 <__LOCK_REGION_LENGTH__+0xa2>
		} else {
			datastreamer_transmit(0x00);
     49c:	80 e0       	ldi	r24, 0x00	; 0
     49e:	0e 94 2c 01 	call	0x258	; 0x258 <datastreamer_transmit>
		}

		/* Threshold */
		datastreamer_transmit(qtlib_key_configs_set1[count_bytes_out].channel_threshold);
     4a2:	89 81       	ldd	r24, Y+1	; 0x01
     4a4:	9a 81       	ldd	r25, Y+2	; 0x02
     4a6:	fc 01       	movw	r30, r24
     4a8:	ee 0f       	add	r30, r30
     4aa:	ff 1f       	adc	r31, r31
     4ac:	8e 0f       	add	r24, r30
     4ae:	9f 1f       	adc	r25, r31
     4b0:	fc 01       	movw	r30, r24
     4b2:	e4 5e       	subi	r30, 0xE4	; 228
     4b4:	ff 4b       	sbci	r31, 0xBF	; 191
     4b6:	80 81       	ld	r24, Z
     4b8:	0e 94 2c 01 	call	0x258	; 0x258 <datastreamer_transmit>
	// Start token
	datastreamer_transmit(0x55);

	// Frame Start
	datastreamer_transmit(sequence++);
	for (count_bytes_out = 0u; count_bytes_out < DEF_NUM_CHANNELS; count_bytes_out++) {
     4bc:	89 81       	ldd	r24, Y+1	; 0x01
     4be:	9a 81       	ldd	r25, Y+2	; 0x02
     4c0:	01 96       	adiw	r24, 0x01	; 1
     4c2:	89 83       	std	Y+1, r24	; 0x01
     4c4:	9a 83       	std	Y+2, r25	; 0x02
     4c6:	89 81       	ldd	r24, Y+1	; 0x01
     4c8:	9a 81       	ldd	r25, Y+2	; 0x02
     4ca:	05 97       	sbiw	r24, 0x05	; 5
     4cc:	08 f4       	brcc	.+2      	; 0x4d0 <__LOCK_REGION_LENGTH__+0xd0>
     4ce:	ad cf       	rjmp	.-166    	; 0x42a <__LOCK_REGION_LENGTH__+0x2a>
#endif
*/
		
		
	/* Other Debug Parameters */
	datastreamer_transmit(module_error_code);
     4d0:	80 91 5b 41 	lds	r24, 0x415B	; 0x80415b <module_error_code>
     4d4:	0e 94 2c 01 	call	0x258	; 0x258 <datastreamer_transmit>

	/* Frame End */
	// datastreamer_transmit(sequence++);

	/* End token */
	datastreamer_transmit(~0x55);
     4d8:	8a ea       	ldi	r24, 0xAA	; 170
     4da:	0e 94 2c 01 	call	0x258	; 0x258 <datastreamer_transmit>
}
     4de:	0f 90       	pop	r0
     4e0:	0f 90       	pop	r0
     4e2:	df 91       	pop	r29
     4e4:	cf 91       	pop	r28
     4e6:	1f 91       	pop	r17
     4e8:	0f 91       	pop	r16
     4ea:	08 95       	ret

000004ec <datastreamer_output>:
uint8_t data_tx_mode = ASCII_OUTPUT;

void datastreamer_output(void)
{
	
	if(data_tx_mode == ASCII_OUTPUT)
     4ec:	80 91 00 40 	lds	r24, 0x4000	; 0x804000 <__DATA_REGION_ORIGIN__>
     4f0:	81 30       	cpi	r24, 0x01	; 1
     4f2:	19 f4       	brne	.+6      	; 0x4fa <datastreamer_output+0xe>
		ascii_output();
     4f4:	0e 94 4a 01 	call	0x294	; 0x294 <ascii_output>
     4f8:	08 95       	ret
	else byte_output();
     4fa:	0e 94 fc 01 	call	0x3f8	; 0x3f8 <byte_output>
     4fe:	08 95       	ret

00000500 <qtm_measure_complete_callback>:
{
	/* Calibrate Node */
	qtm_calibrate_sensor_node(&qtlib_acq_set1, sensor_node);
	/* Initialize key */
	qtm_init_sensor_key(&qtlib_key_set1, sensor_node, &ptc_qtlib_node_stat1[sensor_node]);
}
     500:	81 e0       	ldi	r24, 0x01	; 1
     502:	80 93 5d 41 	sts	0x415D, r24	; 0x80415d <touch_postprocess_request>
     506:	08 95       	ret

00000508 <Timer_set_period>:
     508:	e0 e4       	ldi	r30, 0x40	; 64
     50a:	f1 e0       	ldi	r31, 0x01	; 1
     50c:	91 81       	ldd	r25, Z+1	; 0x01
     50e:	92 fd       	sbrc	r25, 2
     510:	fd cf       	rjmp	.-6      	; 0x50c <Timer_set_period+0x4>
     512:	90 e0       	ldi	r25, 0x00	; 0
     514:	80 93 4a 01 	sts	0x014A, r24	; 0x80014a <__TEXT_REGION_LENGTH__+0x7e014a>
     518:	90 93 4b 01 	sts	0x014B, r25	; 0x80014b <__TEXT_REGION_LENGTH__+0x7e014b>
     51c:	08 95       	ret

0000051e <touch_init>:
     51e:	0f 93       	push	r16
     520:	1f 93       	push	r17
     522:	cf 93       	push	r28
     524:	df 93       	push	r29
     526:	80 e2       	ldi	r24, 0x20	; 32
     528:	0e 94 84 02 	call	0x508	; 0x508 <Timer_set_period>
     52c:	e1 e7       	ldi	r30, 0x71	; 113
     52e:	f4 e0       	ldi	r31, 0x04	; 4
     530:	80 81       	ld	r24, Z
     532:	87 7f       	andi	r24, 0xF7	; 247
     534:	80 83       	st	Z, r24
     536:	80 81       	ld	r24, Z
     538:	88 7f       	andi	r24, 0xF8	; 248
     53a:	84 60       	ori	r24, 0x04	; 4
     53c:	80 83       	st	Z, r24
     53e:	e7 e7       	ldi	r30, 0x77	; 119
     540:	f4 e0       	ldi	r31, 0x04	; 4
     542:	80 81       	ld	r24, Z
     544:	87 7f       	andi	r24, 0xF7	; 247
     546:	80 83       	st	Z, r24
     548:	80 81       	ld	r24, Z
     54a:	88 7f       	andi	r24, 0xF8	; 248
     54c:	84 60       	ori	r24, 0x04	; 4
     54e:	80 83       	st	Z, r24
     550:	e0 e7       	ldi	r30, 0x70	; 112
     552:	f4 e0       	ldi	r31, 0x04	; 4
     554:	80 81       	ld	r24, Z
     556:	87 7f       	andi	r24, 0xF7	; 247
     558:	80 83       	st	Z, r24
     55a:	80 81       	ld	r24, Z
     55c:	88 7f       	andi	r24, 0xF8	; 248
     55e:	84 60       	ori	r24, 0x04	; 4
     560:	80 83       	st	Z, r24
     562:	e6 e1       	ldi	r30, 0x16	; 22
     564:	f4 e0       	ldi	r31, 0x04	; 4
     566:	80 81       	ld	r24, Z
     568:	87 7f       	andi	r24, 0xF7	; 247
     56a:	80 83       	st	Z, r24
     56c:	80 81       	ld	r24, Z
     56e:	88 7f       	andi	r24, 0xF8	; 248
     570:	84 60       	ori	r24, 0x04	; 4
     572:	80 83       	st	Z, r24
     574:	e5 e7       	ldi	r30, 0x75	; 117
     576:	f4 e0       	ldi	r31, 0x04	; 4
     578:	80 81       	ld	r24, Z
     57a:	87 7f       	andi	r24, 0xF7	; 247
     57c:	80 83       	st	Z, r24
     57e:	80 81       	ld	r24, Z
     580:	88 7f       	andi	r24, 0xF8	; 248
     582:	84 60       	ori	r24, 0x04	; 4
     584:	80 83       	st	Z, r24
     586:	e4 e1       	ldi	r30, 0x14	; 20
     588:	f4 e0       	ldi	r31, 0x04	; 4
     58a:	80 81       	ld	r24, Z
     58c:	87 7f       	andi	r24, 0xF7	; 247
     58e:	80 83       	st	Z, r24
     590:	80 81       	ld	r24, Z
     592:	88 7f       	andi	r24, 0xF8	; 248
     594:	84 60       	ori	r24, 0x04	; 4
     596:	80 83       	st	Z, r24
     598:	8e e4       	ldi	r24, 0x4E	; 78
     59a:	90 e4       	ldi	r25, 0x40	; 64
     59c:	0e 94 ee 11 	call	0x23dc	; 0x23dc <qtm_ptc_init_acquisition_module>
     5a0:	82 e0       	ldi	r24, 0x02	; 2
     5a2:	92 e4       	ldi	r25, 0x42	; 66
     5a4:	0e 94 a5 12 	call	0x254a	; 0x254a <qtm_ptc_qtlib_assign_signal_memory>
     5a8:	c0 e0       	ldi	r28, 0x00	; 0
     5aa:	d0 e0       	ldi	r29, 0x00	; 0
     5ac:	be 01       	movw	r22, r28
     5ae:	8e e4       	ldi	r24, 0x4E	; 78
     5b0:	90 e4       	ldi	r25, 0x40	; 64
     5b2:	0e 94 1f 13 	call	0x263e	; 0x263e <qtm_enable_sensor_node>
     5b6:	be 01       	movw	r22, r28
     5b8:	8e e4       	ldi	r24, 0x4E	; 78
     5ba:	90 e4       	ldi	r25, 0x40	; 64
     5bc:	0e 94 3e 13 	call	0x267c	; 0x267c <qtm_calibrate_sensor_node>
     5c0:	21 96       	adiw	r28, 0x01	; 1
     5c2:	c5 30       	cpi	r28, 0x05	; 5
     5c4:	d1 05       	cpc	r29, r1
     5c6:	91 f7       	brne	.-28     	; 0x5ac <touch_init+0x8e>
     5c8:	00 ee       	ldi	r16, 0xE0	; 224
     5ca:	11 e4       	ldi	r17, 0x41	; 65
     5cc:	c0 e0       	ldi	r28, 0x00	; 0
     5ce:	a8 01       	movw	r20, r16
     5d0:	6c 2f       	mov	r22, r28
     5d2:	84 e1       	ldi	r24, 0x14	; 20
     5d4:	90 e4       	ldi	r25, 0x40	; 64
     5d6:	0e 94 f9 04 	call	0x9f2	; 0x9f2 <qtm_init_sensor_key>
     5da:	cf 5f       	subi	r28, 0xFF	; 255
     5dc:	0b 5f       	subi	r16, 0xFB	; 251
     5de:	1f 4f       	sbci	r17, 0xFF	; 255
     5e0:	c5 30       	cpi	r28, 0x05	; 5
     5e2:	a9 f7       	brne	.-22     	; 0x5ce <touch_init+0xb0>
     5e4:	81 e0       	ldi	r24, 0x01	; 1
     5e6:	90 e4       	ldi	r25, 0x40	; 64
     5e8:	0e 94 e6 08 	call	0x11cc	; 0x11cc <qtm_init_scroller_module>
     5ec:	0e 94 2b 01 	call	0x256	; 0x256 <datastreamer_init>
     5f0:	df 91       	pop	r29
     5f2:	cf 91       	pop	r28
     5f4:	1f 91       	pop	r17
     5f6:	0f 91       	pop	r16
     5f8:	08 95       	ret

000005fa <touch_process>:
     5fa:	80 91 5e 41 	lds	r24, 0x415E	; 0x80415e <time_to_measure_touch_flag>
     5fe:	81 30       	cpi	r24, 0x01	; 1
     600:	51 f4       	brne	.+20     	; 0x616 <touch_process+0x1c>
     602:	60 e8       	ldi	r22, 0x80	; 128
     604:	72 e0       	ldi	r23, 0x02	; 2
     606:	8e e4       	ldi	r24, 0x4E	; 78
     608:	90 e4       	ldi	r25, 0x40	; 64
     60a:	0e 94 af 12 	call	0x255e	; 0x255e <qtm_ptc_start_measurement_seq>
     60e:	81 11       	cpse	r24, r1
     610:	02 c0       	rjmp	.+4      	; 0x616 <touch_process+0x1c>
     612:	10 92 5e 41 	sts	0x415E, r1	; 0x80415e <time_to_measure_touch_flag>
     616:	80 91 5d 41 	lds	r24, 0x415D	; 0x80415d <touch_postprocess_request>
     61a:	81 30       	cpi	r24, 0x01	; 1
     61c:	e9 f5       	brne	.+122    	; 0x698 <touch_process+0x9e>
     61e:	10 92 5d 41 	sts	0x415D, r1	; 0x80415d <touch_postprocess_request>
     622:	0e 94 6c 0f 	call	0x1ed8	; 0x1ed8 <qtm_acquisition_process>
     626:	81 11       	cpse	r24, r1
     628:	22 c0       	rjmp	.+68     	; 0x66e <touch_process+0x74>
     62a:	85 e3       	ldi	r24, 0x35	; 53
     62c:	90 e4       	ldi	r25, 0x40	; 64
     62e:	0e 94 47 0c 	call	0x188e	; 0x188e <qtm_freq_hop_autotune>
     632:	88 23       	and	r24, r24
     634:	29 f0       	breq	.+10     	; 0x640 <touch_process+0x46>
     636:	82 e0       	ldi	r24, 0x02	; 2
     638:	80 93 5b 41 	sts	0x415B, r24	; 0x80415b <module_error_code>
     63c:	0e 94 76 02 	call	0x4ec	; 0x4ec <datastreamer_output>
     640:	84 e1       	ldi	r24, 0x14	; 20
     642:	90 e4       	ldi	r25, 0x40	; 64
     644:	0e 94 18 05 	call	0xa30	; 0xa30 <qtm_key_sensors_process>
     648:	88 23       	and	r24, r24
     64a:	29 f0       	breq	.+10     	; 0x656 <touch_process+0x5c>
     64c:	83 e0       	ldi	r24, 0x03	; 3
     64e:	80 93 5b 41 	sts	0x415B, r24	; 0x80415b <module_error_code>
     652:	0e 94 76 02 	call	0x4ec	; 0x4ec <datastreamer_output>
     656:	81 e0       	ldi	r24, 0x01	; 1
     658:	90 e4       	ldi	r25, 0x40	; 64
     65a:	0e 94 26 09 	call	0x124c	; 0x124c <qtm_scroller_process>
     65e:	88 23       	and	r24, r24
     660:	59 f0       	breq	.+22     	; 0x678 <touch_process+0x7e>
     662:	84 e0       	ldi	r24, 0x04	; 4
     664:	80 93 5b 41 	sts	0x415B, r24	; 0x80415b <module_error_code>
     668:	0e 94 76 02 	call	0x4ec	; 0x4ec <datastreamer_output>
     66c:	05 c0       	rjmp	.+10     	; 0x678 <touch_process+0x7e>
     66e:	81 e0       	ldi	r24, 0x01	; 1
     670:	80 93 5b 41 	sts	0x415B, r24	; 0x80415b <module_error_code>
     674:	0e 94 76 02 	call	0x4ec	; 0x4ec <datastreamer_output>
     678:	e0 91 14 40 	lds	r30, 0x4014	; 0x804014 <qtlib_key_set1>
     67c:	f0 91 15 40 	lds	r31, 0x4015	; 0x804015 <qtlib_key_set1+0x1>
     680:	80 81       	ld	r24, Z
     682:	88 23       	and	r24, r24
     684:	24 f4       	brge	.+8      	; 0x68e <touch_process+0x94>
     686:	81 e0       	ldi	r24, 0x01	; 1
     688:	80 93 5e 41 	sts	0x415E, r24	; 0x80415e <time_to_measure_touch_flag>
     68c:	03 c0       	rjmp	.+6      	; 0x694 <touch_process+0x9a>
     68e:	81 e0       	ldi	r24, 0x01	; 1
     690:	80 93 5c 41 	sts	0x415C, r24	; 0x80415c <measurement_done_touch>
     694:	0e 94 76 02 	call	0x4ec	; 0x4ec <datastreamer_output>
     698:	08 95       	ret

0000069a <touch_timer_handler>:
     69a:	80 91 dc 41 	lds	r24, 0x41DC	; 0x8041dc <interrupt_cnt>
     69e:	8f 5f       	subi	r24, 0xFF	; 255
     6a0:	84 31       	cpi	r24, 0x14	; 20
     6a2:	18 f4       	brcc	.+6      	; 0x6aa <touch_timer_handler+0x10>
     6a4:	80 93 dc 41 	sts	0x41DC, r24	; 0x8041dc <interrupt_cnt>
     6a8:	08 95       	ret
     6aa:	10 92 dc 41 	sts	0x41DC, r1	; 0x8041dc <interrupt_cnt>
     6ae:	81 e0       	ldi	r24, 0x01	; 1
     6b0:	80 93 5e 41 	sts	0x415E, r24	; 0x80415e <time_to_measure_touch_flag>
     6b4:	84 e1       	ldi	r24, 0x14	; 20
     6b6:	90 e0       	ldi	r25, 0x00	; 0
     6b8:	0e 94 ee 04 	call	0x9dc	; 0x9dc <qtm_update_qtlib_timer>
     6bc:	08 95       	ret

000006be <get_sensor_node_signal>:
     6be:	9c 01       	movw	r18, r24
     6c0:	22 0f       	add	r18, r18
     6c2:	33 1f       	adc	r19, r19
     6c4:	22 0f       	add	r18, r18
     6c6:	33 1f       	adc	r19, r19
     6c8:	82 0f       	add	r24, r18
     6ca:	93 1f       	adc	r25, r19
     6cc:	fc 01       	movw	r30, r24
     6ce:	e0 52       	subi	r30, 0x20	; 32
     6d0:	fe 4b       	sbci	r31, 0xBE	; 190
     6d2:	81 81       	ldd	r24, Z+1	; 0x01
     6d4:	92 81       	ldd	r25, Z+2	; 0x02
     6d6:	08 95       	ret

000006d8 <get_sensor_node_reference>:
     6d8:	9c 01       	movw	r18, r24
     6da:	22 0f       	add	r18, r18
     6dc:	33 1f       	adc	r19, r19
     6de:	82 0f       	add	r24, r18
     6e0:	93 1f       	adc	r25, r19
     6e2:	fc 01       	movw	r30, r24
     6e4:	ee 0f       	add	r30, r30
     6e6:	ff 1f       	adc	r31, r31
     6e8:	e4 5f       	subi	r30, 0xF4	; 244
     6ea:	fd 4b       	sbci	r31, 0xBD	; 189
     6ec:	84 81       	ldd	r24, Z+4	; 0x04
     6ee:	95 81       	ldd	r25, Z+5	; 0x05
     6f0:	08 95       	ret

000006f2 <get_sensor_cc_val>:
     6f2:	9c 01       	movw	r18, r24
     6f4:	22 0f       	add	r18, r18
     6f6:	33 1f       	adc	r19, r19
     6f8:	22 0f       	add	r18, r18
     6fa:	33 1f       	adc	r19, r19
     6fc:	82 0f       	add	r24, r18
     6fe:	93 1f       	adc	r25, r19
     700:	fc 01       	movw	r30, r24
     702:	e0 52       	subi	r30, 0x20	; 32
     704:	fe 4b       	sbci	r31, 0xBE	; 190
     706:	83 81       	ldd	r24, Z+3	; 0x03
     708:	94 81       	ldd	r25, Z+4	; 0x04
     70a:	08 95       	ret

0000070c <get_sensor_state>:
     70c:	9c 01       	movw	r18, r24
     70e:	22 0f       	add	r18, r18
     710:	33 1f       	adc	r19, r19
     712:	82 0f       	add	r24, r18
     714:	93 1f       	adc	r25, r19
     716:	88 0f       	add	r24, r24
     718:	99 1f       	adc	r25, r25
     71a:	e0 91 18 40 	lds	r30, 0x4018	; 0x804018 <qtlib_key_set1+0x4>
     71e:	f0 91 19 40 	lds	r31, 0x4019	; 0x804019 <qtlib_key_set1+0x5>
     722:	e8 0f       	add	r30, r24
     724:	f9 1f       	adc	r31, r25
     726:	80 81       	ld	r24, Z
     728:	08 95       	ret

0000072a <get_scroller_state>:

uint8_t get_scroller_state(uint16_t sensor_node)
{
	return (qtm_scroller_control1.qtm_scroller_data[sensor_node].scroller_status);
     72a:	9c 01       	movw	r18, r24
     72c:	22 0f       	add	r18, r18
     72e:	33 1f       	adc	r19, r19
     730:	22 0f       	add	r18, r18
     732:	33 1f       	adc	r19, r19
     734:	22 0f       	add	r18, r18
     736:	33 1f       	adc	r19, r19
     738:	82 0f       	add	r24, r18
     73a:	93 1f       	adc	r25, r19
     73c:	e0 91 05 40 	lds	r30, 0x4005	; 0x804005 <qtm_scroller_control1+0x4>
     740:	f0 91 06 40 	lds	r31, 0x4006	; 0x804006 <qtm_scroller_control1+0x5>
     744:	e8 0f       	add	r30, r24
     746:	f9 1f       	adc	r31, r25
}
     748:	80 81       	ld	r24, Z
     74a:	08 95       	ret

0000074c <get_scroller_position>:

uint16_t get_scroller_position(uint16_t sensor_node)
{
	return (qtm_scroller_control1.qtm_scroller_data[sensor_node].position);
     74c:	9c 01       	movw	r18, r24
     74e:	22 0f       	add	r18, r18
     750:	33 1f       	adc	r19, r19
     752:	22 0f       	add	r18, r18
     754:	33 1f       	adc	r19, r19
     756:	22 0f       	add	r18, r18
     758:	33 1f       	adc	r19, r19
     75a:	82 0f       	add	r24, r18
     75c:	93 1f       	adc	r25, r19
     75e:	e0 91 05 40 	lds	r30, 0x4005	; 0x804005 <qtm_scroller_control1+0x4>
     762:	f0 91 06 40 	lds	r31, 0x4006	; 0x804006 <qtm_scroller_control1+0x5>
     766:	e8 0f       	add	r30, r24
     768:	f9 1f       	adc	r31, r25
}
     76a:	85 81       	ldd	r24, Z+5	; 0x05
     76c:	96 81       	ldd	r25, Z+6	; 0x06
     76e:	08 95       	ret

00000770 <__vector_27>:
#if defined(__ICCAVR__)
ISR(QTML_PTC_vect_iar)
#else
ISR(QTML_PTC_vect)
#endif
{
     770:	1f 92       	push	r1
     772:	0f 92       	push	r0
     774:	0f b6       	in	r0, 0x3f	; 63
     776:	0f 92       	push	r0
     778:	11 24       	eor	r1, r1
     77a:	0b b6       	in	r0, 0x3b	; 59
     77c:	0f 92       	push	r0
     77e:	2f 93       	push	r18
     780:	3f 93       	push	r19
     782:	4f 93       	push	r20
     784:	5f 93       	push	r21
     786:	6f 93       	push	r22
     788:	7f 93       	push	r23
     78a:	8f 93       	push	r24
     78c:	9f 93       	push	r25
     78e:	af 93       	push	r26
     790:	bf 93       	push	r27
     792:	ef 93       	push	r30
     794:	ff 93       	push	r31
	qtm_avr_da_ptc_handler_eoc();
     796:	0e 94 c5 13 	call	0x278a	; 0x278a <qtm_avr_da_ptc_handler_eoc>
}
     79a:	ff 91       	pop	r31
     79c:	ef 91       	pop	r30
     79e:	bf 91       	pop	r27
     7a0:	af 91       	pop	r26
     7a2:	9f 91       	pop	r25
     7a4:	8f 91       	pop	r24
     7a6:	7f 91       	pop	r23
     7a8:	6f 91       	pop	r22
     7aa:	5f 91       	pop	r21
     7ac:	4f 91       	pop	r20
     7ae:	3f 91       	pop	r19
     7b0:	2f 91       	pop	r18
     7b2:	0f 90       	pop	r0
     7b4:	0b be       	out	0x3b, r0	; 59
     7b6:	0f 90       	pop	r0
     7b8:	0f be       	out	0x3f, r0	; 63
     7ba:	0f 90       	pop	r0
     7bc:	1f 90       	pop	r1
     7be:	18 95       	reti

000007c0 <BOD_init>:
int8_t BOD_init()
{

	// ccp_write_io((void*)&(BOD.CTRLA),BOD_SLEEP_DIS_gc /* Disabled */);

	BOD.INTCTRL = 0 << BOD_VLMIE_bp        /* voltage level monitor interrrupt enable: disabled */
     7c0:	10 92 89 00 	sts	0x0089, r1	; 0x800089 <__TEXT_REGION_LENGTH__+0x7e0089>
	              | BOD_VLMCFG_FALLING_gc; /* Interrupt when supply goes below VLM level */

	// BOD.VLMCTRLA = BOD_VLMLVL_5ABOVE_gc; /* VLM threshold 5% above BOD level */

	return 0;
}
     7c4:	80 e0       	ldi	r24, 0x00	; 0
     7c6:	08 95       	ret

000007c8 <CLKCTRL_init>:
 *       on calling convention. The memory model is not visible to the
 *       preprocessor, so it must be defined in the Assembler preprocessor directives.
 */
static inline void ccp_write_io(void *addr, uint8_t value)
{
	protected_write_io(addr, CCP_IOREG_gc, value);
     7c8:	44 e2       	ldi	r20, 0x24	; 36
     7ca:	68 ed       	ldi	r22, 0xD8	; 216
     7cc:	88 e6       	ldi	r24, 0x68	; 104
     7ce:	90 e0       	ldi	r25, 0x00	; 0
     7d0:	0e 94 50 04 	call	0x8a0	; 0x8a0 <protected_write_io>
	//		 | 0 << CLKCTRL_CLKOUT_bp /* System clock out: disabled */);

	// ccp_write_io((void*)&(CLKCTRL.MCLKLOCK),0 << CLKCTRL_LOCKEN_bp /* lock enable: disabled */);

	return 0;
}
     7d4:	80 e0       	ldi	r24, 0x00	; 0
     7d6:	08 95       	ret

000007d8 <CPUINT_init>:

	// CPUINT.LVL0PRI = 0x0 << CPUINT_LVL0PRI_gp; /* Interrupt Level Priority: 0x0 */

	// CPUINT.LVL1VEC = 0x0 << CPUINT_LVL1VEC_gp; /* Interrupt Vector with High Priority: 0x0 */

	ENABLE_INTERRUPTS();
     7d8:	78 94       	sei

	return 0;
}
     7da:	80 e0       	ldi	r24, 0x00	; 0
     7dc:	08 95       	ret

000007de <mcu_init>:
#ifdef __cplusplus
extern "C" {
#endif

void mcu_init(void)
{
     7de:	e0 e1       	ldi	r30, 0x10	; 16
     7e0:	f4 e0       	ldi	r31, 0x04	; 4
	 * peripheral if used */

	/* Set all pins to low power mode */

	for (uint8_t i = 0; i < 8; i++) {
		*((uint8_t *)&PORTA + 0x10 + i) |= 1 << PORT_PULLUPEN_bp;
     7e2:	80 81       	ld	r24, Z
     7e4:	88 60       	ori	r24, 0x08	; 8
     7e6:	81 93       	st	Z+, r24
	 * disables all peripherals to save power. Driver shall enable
	 * peripheral if used */

	/* Set all pins to low power mode */

	for (uint8_t i = 0; i < 8; i++) {
     7e8:	e8 31       	cpi	r30, 0x18	; 24
     7ea:	84 e0       	ldi	r24, 0x04	; 4
     7ec:	f8 07       	cpc	r31, r24
     7ee:	c9 f7       	brne	.-14     	; 0x7e2 <mcu_init+0x4>
     7f0:	e0 e3       	ldi	r30, 0x30	; 48
     7f2:	f4 e0       	ldi	r31, 0x04	; 4
		*((uint8_t *)&PORTA + 0x10 + i) |= 1 << PORT_PULLUPEN_bp;
	}

	for (uint8_t i = 0; i < 8; i++) {
		*((uint8_t *)&PORTB + 0x10 + i) |= 1 << PORT_PULLUPEN_bp;
     7f4:	80 81       	ld	r24, Z
     7f6:	88 60       	ori	r24, 0x08	; 8
     7f8:	81 93       	st	Z+, r24

	for (uint8_t i = 0; i < 8; i++) {
		*((uint8_t *)&PORTA + 0x10 + i) |= 1 << PORT_PULLUPEN_bp;
	}

	for (uint8_t i = 0; i < 8; i++) {
     7fa:	e8 33       	cpi	r30, 0x38	; 56
     7fc:	84 e0       	ldi	r24, 0x04	; 4
     7fe:	f8 07       	cpc	r31, r24
     800:	c9 f7       	brne	.-14     	; 0x7f4 <mcu_init+0x16>
     802:	e0 e5       	ldi	r30, 0x50	; 80
     804:	f4 e0       	ldi	r31, 0x04	; 4
		*((uint8_t *)&PORTB + 0x10 + i) |= 1 << PORT_PULLUPEN_bp;
	}

	for (uint8_t i = 0; i < 8; i++) {
		*((uint8_t *)&PORTC + 0x10 + i) |= 1 << PORT_PULLUPEN_bp;
     806:	80 81       	ld	r24, Z
     808:	88 60       	ori	r24, 0x08	; 8
     80a:	81 93       	st	Z+, r24

	for (uint8_t i = 0; i < 8; i++) {
		*((uint8_t *)&PORTB + 0x10 + i) |= 1 << PORT_PULLUPEN_bp;
	}

	for (uint8_t i = 0; i < 8; i++) {
     80c:	e8 35       	cpi	r30, 0x58	; 88
     80e:	84 e0       	ldi	r24, 0x04	; 4
     810:	f8 07       	cpc	r31, r24
     812:	c9 f7       	brne	.-14     	; 0x806 <mcu_init+0x28>
     814:	e0 e7       	ldi	r30, 0x70	; 112
     816:	f4 e0       	ldi	r31, 0x04	; 4
		*((uint8_t *)&PORTC + 0x10 + i) |= 1 << PORT_PULLUPEN_bp;
	}

	for (uint8_t i = 0; i < 8; i++) {
		*((uint8_t *)&PORTD + 0x10 + i) |= 1 << PORT_PULLUPEN_bp;
     818:	80 81       	ld	r24, Z
     81a:	88 60       	ori	r24, 0x08	; 8
     81c:	81 93       	st	Z+, r24

	for (uint8_t i = 0; i < 8; i++) {
		*((uint8_t *)&PORTC + 0x10 + i) |= 1 << PORT_PULLUPEN_bp;
	}

	for (uint8_t i = 0; i < 8; i++) {
     81e:	e8 37       	cpi	r30, 0x78	; 120
     820:	84 e0       	ldi	r24, 0x04	; 4
     822:	f8 07       	cpc	r31, r24
     824:	c9 f7       	brne	.-14     	; 0x818 <mcu_init+0x3a>
     826:	e0 e9       	ldi	r30, 0x90	; 144
     828:	f4 e0       	ldi	r31, 0x04	; 4
		*((uint8_t *)&PORTD + 0x10 + i) |= 1 << PORT_PULLUPEN_bp;
	}

	for (uint8_t i = 0; i < 8; i++) {
		*((uint8_t *)&PORTE + 0x10 + i) |= 1 << PORT_PULLUPEN_bp;
     82a:	80 81       	ld	r24, Z
     82c:	88 60       	ori	r24, 0x08	; 8
     82e:	81 93       	st	Z+, r24

	for (uint8_t i = 0; i < 8; i++) {
		*((uint8_t *)&PORTD + 0x10 + i) |= 1 << PORT_PULLUPEN_bp;
	}

	for (uint8_t i = 0; i < 8; i++) {
     830:	e8 39       	cpi	r30, 0x98	; 152
     832:	84 e0       	ldi	r24, 0x04	; 4
     834:	f8 07       	cpc	r31, r24
     836:	c9 f7       	brne	.-14     	; 0x82a <mcu_init+0x4c>
     838:	e0 eb       	ldi	r30, 0xB0	; 176
     83a:	f4 e0       	ldi	r31, 0x04	; 4
		*((uint8_t *)&PORTE + 0x10 + i) |= 1 << PORT_PULLUPEN_bp;
	}

	for (uint8_t i = 0; i < 8; i++) {
		*((uint8_t *)&PORTF + 0x10 + i) |= 1 << PORT_PULLUPEN_bp;
     83c:	80 81       	ld	r24, Z
     83e:	88 60       	ori	r24, 0x08	; 8
     840:	81 93       	st	Z+, r24

	for (uint8_t i = 0; i < 8; i++) {
		*((uint8_t *)&PORTE + 0x10 + i) |= 1 << PORT_PULLUPEN_bp;
	}

	for (uint8_t i = 0; i < 8; i++) {
     842:	e8 3b       	cpi	r30, 0xB8	; 184
     844:	84 e0       	ldi	r24, 0x04	; 4
     846:	f8 07       	cpc	r31, r24
     848:	c9 f7       	brne	.-14     	; 0x83c <mcu_init+0x5e>
		*((uint8_t *)&PORTF + 0x10 + i) |= 1 << PORT_PULLUPEN_bp;
	}
}
     84a:	08 95       	ret

0000084c <USART_initialization>:
 */
static inline void PORTC_set_pin_dir(const uint8_t pin, const enum port_dir dir)
{
	switch (dir) {
	case PORT_DIR_IN:
		VPORTC.DIR &= ~(1 << pin);
     84c:	41 98       	cbi	0x08, 1	; 8
	volatile uint8_t *port_pin_ctrl = ((uint8_t *)&PORTC + 0x10 + pin);

	if (pull_mode == PORT_PULL_UP) {
		*port_pin_ctrl |= PORT_PULLUPEN_bm;
	} else if (pull_mode == PORT_PULL_OFF) {
		*port_pin_ctrl &= ~PORT_PULLUPEN_bm;
     84e:	e1 e5       	ldi	r30, 0x51	; 81
     850:	f4 e0       	ldi	r31, 0x04	; 4
     852:	80 81       	ld	r24, Z
     854:	87 7f       	andi	r24, 0xF7	; 247
     856:	80 83       	st	Z, r24
static inline void PORTC_set_pin_level(const uint8_t pin, const bool level)
{
	if (level == true) {
		VPORTC.OUT |= (1 << pin);
	} else {
		VPORTC.OUT &= ~(1 << pin);
     858:	48 98       	cbi	0x09, 0	; 9
	switch (dir) {
	case PORT_DIR_IN:
		VPORTC.DIR &= ~(1 << pin);
		break;
	case PORT_DIR_OUT:
		VPORTC.DIR |= (1 << pin);
     85a:	40 9a       	sbi	0x08, 0	; 8
	    // <true"> High
	    false);

	PC0_set_dir(PORT_DIR_OUT);

	USART_init();
     85c:	0e 94 65 04 	call	0x8ca	; 0x8ca <USART_init>
     860:	08 95       	ret

00000862 <system_init>:
/**
 * \brief System initialization
 */
void system_init()
{
	mcu_init();
     862:	0e 94 ef 03 	call	0x7de	; 0x7de <mcu_init>
 *                  false = Pin level set to "low" state
 */
static inline void PORTA_set_pin_level(const uint8_t pin, const bool level)
{
	if (level == true) {
		VPORTA.OUT |= (1 << pin);
     866:	0d 9a       	sbi	0x01, 5	; 1
	switch (dir) {
	case PORT_DIR_IN:
		VPORTA.DIR &= ~(1 << pin);
		break;
	case PORT_DIR_OUT:
		VPORTA.DIR |= (1 << pin);
     868:	05 9a       	sbi	0x00, 5	; 0
 *                  false = Pin level set to "low" state
 */
static inline void PORTA_set_pin_level(const uint8_t pin, const bool level)
{
	if (level == true) {
		VPORTA.OUT |= (1 << pin);
     86a:	0f 9a       	sbi	0x01, 7	; 1
	switch (dir) {
	case PORT_DIR_IN:
		VPORTA.DIR &= ~(1 << pin);
		break;
	case PORT_DIR_OUT:
		VPORTA.DIR |= (1 << pin);
     86c:	07 9a       	sbi	0x00, 7	; 0
 *                  false = Pin level set to "low" state
 */
static inline void PORTC_set_pin_level(const uint8_t pin, const bool level)
{
	if (level == true) {
		VPORTC.OUT |= (1 << pin);
     86e:	4a 9a       	sbi	0x09, 2	; 9
	switch (dir) {
	case PORT_DIR_IN:
		VPORTC.DIR &= ~(1 << pin);
		break;
	case PORT_DIR_OUT:
		VPORTC.DIR |= (1 << pin);
     870:	42 9a       	sbi	0x08, 2	; 8
 *                  false = Pin level set to "low" state
 */
static inline void PORTC_set_pin_level(const uint8_t pin, const bool level)
{
	if (level == true) {
		VPORTC.OUT |= (1 << pin);
     872:	4b 9a       	sbi	0x09, 3	; 9
	switch (dir) {
	case PORT_DIR_IN:
		VPORTC.DIR &= ~(1 << pin);
		break;
	case PORT_DIR_OUT:
		VPORTC.DIR |= (1 << pin);
     874:	43 9a       	sbi	0x08, 3	; 8
 *                  false = Pin level set to "low" state
 */
static inline void PORTD_set_pin_level(const uint8_t pin, const bool level)
{
	if (level == true) {
		VPORTD.OUT |= (1 << pin);
     876:	6a 9a       	sbi	0x0d, 2	; 13
	switch (dir) {
	case PORT_DIR_IN:
		VPORTD.DIR &= ~(1 << pin);
		break;
	case PORT_DIR_OUT:
		VPORTD.DIR |= (1 << pin);
     878:	62 9a       	sbi	0x0c, 2	; 12
 *                  false = Pin level set to "low" state
 */
static inline void PORTD_set_pin_level(const uint8_t pin, const bool level)
{
	if (level == true) {
		VPORTD.OUT |= (1 << pin);
     87a:	6b 9a       	sbi	0x0d, 3	; 13
	switch (dir) {
	case PORT_DIR_IN:
		VPORTD.DIR &= ~(1 << pin);
		break;
	case PORT_DIR_OUT:
		VPORTD.DIR |= (1 << pin);
     87c:	63 9a       	sbi	0x0c, 3	; 12
 *                  false = Pin level set to "low" state
 */
static inline void PORTD_set_pin_level(const uint8_t pin, const bool level)
{
	if (level == true) {
		VPORTD.OUT |= (1 << pin);
     87e:	6c 9a       	sbi	0x0d, 4	; 13
	switch (dir) {
	case PORT_DIR_IN:
		VPORTD.DIR &= ~(1 << pin);
		break;
	case PORT_DIR_OUT:
		VPORTD.DIR |= (1 << pin);
     880:	64 9a       	sbi	0x0c, 4	; 12
 *                  false = Pin level set to "low" state
 */
static inline void PORTD_set_pin_level(const uint8_t pin, const bool level)
{
	if (level == true) {
		VPORTD.OUT |= (1 << pin);
     882:	6e 9a       	sbi	0x0d, 6	; 13
	switch (dir) {
	case PORT_DIR_IN:
		VPORTD.DIR &= ~(1 << pin);
		break;
	case PORT_DIR_OUT:
		VPORTD.DIR |= (1 << pin);
     884:	66 9a       	sbi	0x0c, 6	; 12
	    // <true"> High
	    true);

	LED_6_set_dir(PORT_DIR_OUT);

	CLKCTRL_init();
     886:	0e 94 e4 03 	call	0x7c8	; 0x7c8 <CLKCTRL_init>

	USART_initialization();
     88a:	0e 94 26 04 	call	0x84c	; 0x84c <USART_initialization>

	SLPCTRL_init();
     88e:	0e 94 63 04 	call	0x8c6	; 0x8c6 <SLPCTRL_init>

	CPUINT_init();
     892:	0e 94 ec 03 	call	0x7d8	; 0x7d8 <CPUINT_init>

	Timer_init();
     896:	0e 94 55 04 	call	0x8aa	; 0x8aa <Timer_init>

	BOD_init();
     89a:	0e 94 e0 03 	call	0x7c0	; 0x7c0 <BOD_init>
     89e:	08 95       	ret

000008a0 <protected_write_io>:
	PUBLIC_FUNCTION(protected_write_io)

#if defined(__GNUC__)
  
#ifdef RAMPZ
	out     _SFR_IO_ADDR(RAMPZ), r1         // Clear bits 23:16 of Z
     8a0:	1b be       	out	0x3b, r1	; 59
#endif
	movw    r30, r24                // Load addr into Z
     8a2:	fc 01       	movw	r30, r24
	out     CCP, r22                // Start CCP handshake
     8a4:	64 bf       	out	0x34, r22	; 52
	st      Z, r20                  // Write value to I/O register
     8a6:	40 83       	st	Z, r20
	ret                             // Return to caller
     8a8:	08 95       	ret

000008aa <Timer_init>:
 * \return Initialization status.
 */
int8_t Timer_init()
{

	while (RTC.STATUS > 0) { /* Wait for all register to be synchronized */
     8aa:	e0 e4       	ldi	r30, 0x40	; 64
     8ac:	f1 e0       	ldi	r31, 0x01	; 1
     8ae:	81 81       	ldd	r24, Z+1	; 0x01
     8b0:	81 11       	cpse	r24, r1
     8b2:	fd cf       	rjmp	.-6      	; 0x8ae <Timer_init+0x4>

	// RTC.CMP = 0x0; /* Compare: 0x0 */

	// RTC.CNT = 0x0; /* Counter: 0x0 */

	RTC.CTRLA = RTC_PRESCALER_DIV1_gc   /* 1 */
     8b4:	e0 e4       	ldi	r30, 0x40	; 64
     8b6:	f1 e0       	ldi	r31, 0x01	; 1
     8b8:	81 e8       	ldi	r24, 0x81	; 129
     8ba:	80 83       	st	Z, r24
	            | 1 << RTC_RTCEN_bp     /* Enable: enabled */
	            | 1 << RTC_RUNSTDBY_bp; /* Run In Standby: enabled */

	// RTC.PER = 0xffff; /* Period: 0xffff */

	RTC.CLKSEL = RTC_CLKSEL_OSC32K_gc; /* Internal 32.768 kHz oscillator */
     8bc:	17 82       	std	Z+7, r1	; 0x07

	// RTC.DBGCTRL = 0 << RTC_DBGRUN_bp; /* Run in debug: disabled */

	RTC.INTCTRL = 1 << RTC_CMP_bp    /* Compare Match Interrupt enable: enabled */
     8be:	82 e0       	ldi	r24, 0x02	; 2
     8c0:	82 83       	std	Z+2, r24	; 0x02
	// RTC.PITDBGCTRL = 0 << RTC_DBGRUN_bp; /* Run in debug: disabled */

	// RTC.PITINTCTRL = 0 << RTC_PI_bp; /* Periodic Interrupt: disabled */

	return 0;
}
     8c2:	80 e0       	ldi	r24, 0x00	; 0
     8c4:	08 95       	ret

000008c6 <SLPCTRL_init>:

	// SLPCTRL.CTRLA = 0 << SLPCTRL_SEN_bp /* Sleep enable: disabled */
	//		 | SLPCTRL_SMODE_IDLE_gc; /* Idle mode */

	return 0;
}
     8c6:	80 e0       	ldi	r24, 0x00	; 0
     8c8:	08 95       	ret

000008ca <USART_init>:
uint8_t USART_read()
{
	while (!(USART1.STATUS & USART_RXCIF_bm))
		;
	return USART1.RXDATAL;
}
     8ca:	e0 e2       	ldi	r30, 0x20	; 32
     8cc:	f8 e0       	ldi	r31, 0x08	; 8
     8ce:	84 ec       	ldi	r24, 0xC4	; 196
     8d0:	99 e0       	ldi	r25, 0x09	; 9
     8d2:	80 87       	std	Z+8, r24	; 0x08
     8d4:	91 87       	std	Z+9, r25	; 0x09
     8d6:	80 ec       	ldi	r24, 0xC0	; 192
     8d8:	86 83       	std	Z+6, r24	; 0x06
     8da:	80 e0       	ldi	r24, 0x00	; 0
     8dc:	08 95       	ret

000008de <USART_is_tx_ready>:
     8de:	80 91 24 08 	lds	r24, 0x0824	; 0x800824 <__TEXT_REGION_LENGTH__+0x7e0824>
     8e2:	85 fb       	bst	r24, 5
     8e4:	88 27       	eor	r24, r24
     8e6:	80 f9       	bld	r24, 0
     8e8:	08 95       	ret

000008ea <USART_is_tx_busy>:
     8ea:	80 91 24 08 	lds	r24, 0x0824	; 0x800824 <__TEXT_REGION_LENGTH__+0x7e0824>
     8ee:	86 fb       	bst	r24, 6
     8f0:	88 27       	eor	r24, r24
     8f2:	80 f9       	bld	r24, 0
     8f4:	91 e0       	ldi	r25, 0x01	; 1
     8f6:	89 27       	eor	r24, r25
     8f8:	08 95       	ret

000008fa <USART_write>:
 *
 * \return Nothing
 */
void USART_write(const uint8_t data)
{
	while (!(USART1.STATUS & USART_DREIF_bm))
     8fa:	e0 e2       	ldi	r30, 0x20	; 32
     8fc:	f8 e0       	ldi	r31, 0x08	; 8
     8fe:	94 81       	ldd	r25, Z+4	; 0x04
     900:	95 ff       	sbrs	r25, 5
     902:	fd cf       	rjmp	.-6      	; 0x8fe <USART_write+0x4>
		;
	USART1.TXDATAL = data;
     904:	80 93 22 08 	sts	0x0822, r24	; 0x800822 <__TEXT_REGION_LENGTH__+0x7e0822>
     908:	08 95       	ret

0000090a <check_for_aks_block>:
     90a:	cf 92       	push	r12
     90c:	df 92       	push	r13
     90e:	ff 92       	push	r15
     910:	0f 93       	push	r16
     912:	1f 93       	push	r17
     914:	cf 93       	push	r28
     916:	df 93       	push	r29
     918:	ec 01       	movw	r28, r24
     91a:	ae 81       	ldd	r26, Y+6	; 0x06
     91c:	bf 81       	ldd	r27, Y+7	; 0x07
     91e:	eb 01       	movw	r28, r22
     920:	cc 0f       	add	r28, r28
     922:	dd 1f       	adc	r29, r29
     924:	c6 0f       	add	r28, r22
     926:	d7 1f       	adc	r29, r23
     928:	ca 0f       	add	r28, r26
     92a:	db 1f       	adc	r29, r27
     92c:	fa 80       	ldd	r15, Y+2	; 0x02
     92e:	fc 01       	movw	r30, r24
     930:	44 81       	ldd	r20, Z+4	; 0x04
     932:	55 81       	ldd	r21, Z+5	; 0x05
     934:	e6 e0       	ldi	r30, 0x06	; 6
     936:	e6 9f       	mul	r30, r22
     938:	90 01       	movw	r18, r0
     93a:	e7 9f       	mul	r30, r23
     93c:	30 0d       	add	r19, r0
     93e:	11 24       	eor	r1, r1
     940:	8a 01       	movw	r16, r20
     942:	02 0f       	add	r16, r18
     944:	13 1f       	adc	r17, r19
     946:	f8 01       	movw	r30, r16
     948:	22 81       	ldd	r18, Z+2	; 0x02
     94a:	33 81       	ldd	r19, Z+3	; 0x03
     94c:	f9 01       	movw	r30, r18
     94e:	21 81       	ldd	r18, Z+1	; 0x01
     950:	32 81       	ldd	r19, Z+2	; 0x02
     952:	f8 01       	movw	r30, r16
     954:	04 81       	ldd	r16, Z+4	; 0x04
     956:	15 81       	ldd	r17, Z+5	; 0x05
     958:	20 1b       	sub	r18, r16
     95a:	31 0b       	sbc	r19, r17
     95c:	e8 81       	ld	r30, Y
     95e:	2e 1b       	sub	r18, r30
     960:	31 09       	sbc	r19, r1
     962:	ec 01       	movw	r28, r24
     964:	ea 81       	ldd	r30, Y+2	; 0x02
     966:	fb 81       	ldd	r31, Y+3	; 0x03
     968:	00 81       	ld	r16, Z
     96a:	11 81       	ldd	r17, Z+1	; 0x01
     96c:	fa 01       	movw	r30, r20
     96e:	40 e0       	ldi	r20, 0x00	; 0
     970:	50 e0       	ldi	r21, 0x00	; 0
     972:	40 17       	cp	r20, r16
     974:	51 07       	cpc	r21, r17
     976:	39 f1       	breq	.+78     	; 0x9c6 <check_for_aks_block+0xbc>
     978:	46 17       	cp	r20, r22
     97a:	57 07       	cpc	r21, r23
     97c:	f9 f0       	breq	.+62     	; 0x9bc <check_for_aks_block+0xb2>
     97e:	12 96       	adiw	r26, 0x02	; 2
     980:	8c 91       	ld	r24, X
     982:	12 97       	sbiw	r26, 0x02	; 2
     984:	f8 12       	cpse	r15, r24
     986:	1a c0       	rjmp	.+52     	; 0x9bc <check_for_aks_block+0xb2>
     988:	80 81       	ld	r24, Z
     98a:	85 58       	subi	r24, 0x85	; 133
     98c:	82 30       	cpi	r24, 0x02	; 2
     98e:	e8 f0       	brcs	.+58     	; 0x9ca <check_for_aks_block+0xc0>
     990:	c4 80       	ldd	r12, Z+4	; 0x04
     992:	d5 80       	ldd	r13, Z+5	; 0x05
     994:	82 81       	ldd	r24, Z+2	; 0x02
     996:	93 81       	ldd	r25, Z+3	; 0x03
     998:	ec 01       	movw	r28, r24
     99a:	89 81       	ldd	r24, Y+1	; 0x01
     99c:	9a 81       	ldd	r25, Y+2	; 0x02
     99e:	c8 16       	cp	r12, r24
     9a0:	d9 06       	cpc	r13, r25
     9a2:	60 f4       	brcc	.+24     	; 0x9bc <check_for_aks_block+0xb2>
     9a4:	8c 19       	sub	r24, r12
     9a6:	9d 09       	sbc	r25, r13
     9a8:	cc 91       	ld	r28, X
     9aa:	d0 e0       	ldi	r29, 0x00	; 0
     9ac:	c8 17       	cp	r28, r24
     9ae:	d9 07       	cpc	r29, r25
     9b0:	28 f4       	brcc	.+10     	; 0x9bc <check_for_aks_block+0xb2>
     9b2:	8c 1b       	sub	r24, r28
     9b4:	9d 0b       	sbc	r25, r29
     9b6:	28 17       	cp	r18, r24
     9b8:	39 07       	cpc	r19, r25
     9ba:	38 f0       	brcs	.+14     	; 0x9ca <check_for_aks_block+0xc0>
     9bc:	4f 5f       	subi	r20, 0xFF	; 255
     9be:	5f 4f       	sbci	r21, 0xFF	; 255
     9c0:	13 96       	adiw	r26, 0x03	; 3
     9c2:	36 96       	adiw	r30, 0x06	; 6
     9c4:	d6 cf       	rjmp	.-84     	; 0x972 <check_for_aks_block+0x68>
     9c6:	80 e0       	ldi	r24, 0x00	; 0
     9c8:	01 c0       	rjmp	.+2      	; 0x9cc <check_for_aks_block+0xc2>
     9ca:	81 e0       	ldi	r24, 0x01	; 1
     9cc:	df 91       	pop	r29
     9ce:	cf 91       	pop	r28
     9d0:	1f 91       	pop	r17
     9d2:	0f 91       	pop	r16
     9d4:	ff 90       	pop	r15
     9d6:	df 90       	pop	r13
     9d8:	cf 90       	pop	r12
     9da:	08 95       	ret

000009dc <qtm_update_qtlib_timer>:
     9dc:	20 91 5f 41 	lds	r18, 0x415F	; 0x80415f <qtm_local_ms_timecount>
     9e0:	30 91 60 41 	lds	r19, 0x4160	; 0x804160 <qtm_local_ms_timecount+0x1>
     9e4:	82 0f       	add	r24, r18
     9e6:	93 1f       	adc	r25, r19
     9e8:	80 93 5f 41 	sts	0x415F, r24	; 0x80415f <qtm_local_ms_timecount>
     9ec:	90 93 60 41 	sts	0x4160, r25	; 0x804160 <qtm_local_ms_timecount+0x1>
     9f0:	08 95       	ret

000009f2 <qtm_init_sensor_key>:
     9f2:	00 97       	sbiw	r24, 0x00	; 0
     9f4:	d9 f0       	breq	.+54     	; 0xa2c <qtm_init_sensor_key+0x3a>
     9f6:	41 15       	cp	r20, r1
     9f8:	51 05       	cpc	r21, r1
     9fa:	c1 f0       	breq	.+48     	; 0xa2c <qtm_init_sensor_key+0x3a>
     9fc:	26 e0       	ldi	r18, 0x06	; 6
     9fe:	62 9f       	mul	r22, r18
     a00:	b0 01       	movw	r22, r0
     a02:	11 24       	eor	r1, r1
     a04:	dc 01       	movw	r26, r24
     a06:	14 96       	adiw	r26, 0x04	; 4
     a08:	ed 91       	ld	r30, X+
     a0a:	fc 91       	ld	r31, X
     a0c:	15 97       	sbiw	r26, 0x05	; 5
     a0e:	e6 0f       	add	r30, r22
     a10:	f7 1f       	adc	r31, r23
     a12:	21 e0       	ldi	r18, 0x01	; 1
     a14:	20 83       	st	Z, r18
     a16:	14 96       	adiw	r26, 0x04	; 4
     a18:	8d 91       	ld	r24, X+
     a1a:	9c 91       	ld	r25, X
     a1c:	15 97       	sbiw	r26, 0x05	; 5
     a1e:	fc 01       	movw	r30, r24
     a20:	e6 0f       	add	r30, r22
     a22:	f7 1f       	adc	r31, r23
     a24:	42 83       	std	Z+2, r20	; 0x02
     a26:	53 83       	std	Z+3, r21	; 0x03
     a28:	80 e0       	ldi	r24, 0x00	; 0
     a2a:	08 95       	ret
     a2c:	8b e0       	ldi	r24, 0x0B	; 11
     a2e:	08 95       	ret

00000a30 <qtm_key_sensors_process>:
     a30:	2f 92       	push	r2
     a32:	3f 92       	push	r3
     a34:	4f 92       	push	r4
     a36:	5f 92       	push	r5
     a38:	6f 92       	push	r6
     a3a:	7f 92       	push	r7
     a3c:	8f 92       	push	r8
     a3e:	9f 92       	push	r9
     a40:	af 92       	push	r10
     a42:	bf 92       	push	r11
     a44:	cf 92       	push	r12
     a46:	df 92       	push	r13
     a48:	ef 92       	push	r14
     a4a:	ff 92       	push	r15
     a4c:	0f 93       	push	r16
     a4e:	1f 93       	push	r17
     a50:	cf 93       	push	r28
     a52:	df 93       	push	r29
     a54:	00 97       	sbiw	r24, 0x00	; 0
     a56:	09 f4       	brne	.+2      	; 0xa5a <qtm_key_sensors_process+0x2a>
     a58:	7d c3       	rjmp	.+1786   	; 0x1154 <qtm_key_sensors_process+0x724>
     a5a:	ec 01       	movw	r28, r24
     a5c:	a1 2c       	mov	r10, r1
     a5e:	b1 2c       	mov	r11, r1
     a60:	81 2c       	mov	r8, r1
     a62:	91 2c       	mov	r9, r1
     a64:	21 2c       	mov	r2, r1
     a66:	d1 2c       	mov	r13, r1
     a68:	33 e0       	ldi	r19, 0x03	; 3
     a6a:	c3 2e       	mov	r12, r19
     a6c:	45 e8       	ldi	r20, 0x85	; 133
     a6e:	64 2e       	mov	r6, r20
     a70:	56 e8       	ldi	r21, 0x86	; 134
     a72:	75 2e       	mov	r7, r21
     a74:	67 e0       	ldi	r22, 0x07	; 7
     a76:	36 2e       	mov	r3, r22
     a78:	72 e0       	ldi	r23, 0x02	; 2
     a7a:	47 2e       	mov	r4, r23
     a7c:	e8 e0       	ldi	r30, 0x08	; 8
     a7e:	5e 2e       	mov	r5, r30
     a80:	ea 81       	ldd	r30, Y+2	; 0x02
     a82:	fb 81       	ldd	r31, Y+3	; 0x03
     a84:	80 81       	ld	r24, Z
     a86:	91 81       	ldd	r25, Z+1	; 0x01
     a88:	88 16       	cp	r8, r24
     a8a:	99 06       	cpc	r9, r25
     a8c:	08 f0       	brcs	.+2      	; 0xa90 <qtm_key_sensors_process+0x60>
     a8e:	a5 c1       	rjmp	.+842    	; 0xdda <qtm_key_sensors_process+0x3aa>
     a90:	75 01       	movw	r14, r10
     a92:	ee 0c       	add	r14, r14
     a94:	ff 1c       	adc	r15, r15
     a96:	0c 81       	ldd	r16, Y+4	; 0x04
     a98:	1d 81       	ldd	r17, Y+5	; 0x05
     a9a:	0e 0d       	add	r16, r14
     a9c:	1f 1d       	adc	r17, r15
     a9e:	d8 01       	movw	r26, r16
     aa0:	8c 91       	ld	r24, X
     aa2:	84 30       	cpi	r24, 0x04	; 4
     aa4:	09 f4       	brne	.+2      	; 0xaa8 <qtm_key_sensors_process+0x78>
     aa6:	a2 c0       	rjmp	.+324    	; 0xbec <qtm_key_sensors_process+0x1bc>
     aa8:	38 f4       	brcc	.+14     	; 0xab8 <qtm_key_sensors_process+0x88>
     aaa:	82 30       	cpi	r24, 0x02	; 2
     aac:	01 f1       	breq	.+64     	; 0xaee <qtm_key_sensors_process+0xbe>
     aae:	08 f0       	brcs	.+2      	; 0xab2 <qtm_key_sensors_process+0x82>
     ab0:	49 c0       	rjmp	.+146    	; 0xb44 <qtm_key_sensors_process+0x114>
     ab2:	81 30       	cpi	r24, 0x01	; 1
     ab4:	59 f0       	breq	.+22     	; 0xacc <qtm_key_sensors_process+0x9c>
     ab6:	8a c1       	rjmp	.+788    	; 0xdcc <qtm_key_sensors_process+0x39c>
     ab8:	85 38       	cpi	r24, 0x85	; 133
     aba:	09 f4       	brne	.+2      	; 0xabe <qtm_key_sensors_process+0x8e>
     abc:	c2 c0       	rjmp	.+388    	; 0xc42 <qtm_key_sensors_process+0x212>
     abe:	86 38       	cpi	r24, 0x86	; 134
     ac0:	09 f4       	brne	.+2      	; 0xac4 <qtm_key_sensors_process+0x94>
     ac2:	f6 c0       	rjmp	.+492    	; 0xcb0 <qtm_key_sensors_process+0x280>
     ac4:	87 30       	cpi	r24, 0x07	; 7
     ac6:	09 f0       	breq	.+2      	; 0xaca <qtm_key_sensors_process+0x9a>
     ac8:	81 c1       	rjmp	.+770    	; 0xdcc <qtm_key_sensors_process+0x39c>
     aca:	37 c1       	rjmp	.+622    	; 0xd3a <qtm_key_sensors_process+0x30a>
     acc:	d8 01       	movw	r26, r16
     ace:	12 96       	adiw	r26, 0x02	; 2
     ad0:	ed 91       	ld	r30, X+
     ad2:	fc 91       	ld	r31, X
     ad4:	13 97       	sbiw	r26, 0x03	; 3
     ad6:	80 81       	ld	r24, Z
     ad8:	8e 71       	andi	r24, 0x1E	; 30
     ada:	09 f0       	breq	.+2      	; 0xade <qtm_key_sensors_process+0xae>
     adc:	69 c1       	rjmp	.+722    	; 0xdb0 <qtm_key_sensors_process+0x380>
     ade:	4c 92       	st	X, r4
     ae0:	8c 81       	ldd	r24, Y+4	; 0x04
     ae2:	9d 81       	ldd	r25, Y+5	; 0x05
     ae4:	fc 01       	movw	r30, r24
     ae6:	ee 0d       	add	r30, r14
     ae8:	ff 1d       	adc	r31, r15
     aea:	51 82       	std	Z+1, r5	; 0x01
     aec:	61 c1       	rjmp	.+706    	; 0xdb0 <qtm_key_sensors_process+0x380>
     aee:	f8 01       	movw	r30, r16
     af0:	21 81       	ldd	r18, Z+1	; 0x01
     af2:	22 23       	and	r18, r18
     af4:	29 f1       	breq	.+74     	; 0xb40 <qtm_key_sensors_process+0x110>
     af6:	02 80       	ldd	r0, Z+2	; 0x02
     af8:	f3 81       	ldd	r31, Z+3	; 0x03
     afa:	e0 2d       	mov	r30, r0
     afc:	25 30       	cpi	r18, 0x05	; 5
     afe:	20 f0       	brcs	.+8      	; 0xb08 <qtm_key_sensors_process+0xd8>
     b00:	81 81       	ldd	r24, Z+1	; 0x01
     b02:	92 81       	ldd	r25, Z+2	; 0x02
     b04:	d8 01       	movw	r26, r16
     b06:	0e c0       	rjmp	.+28     	; 0xb24 <qtm_key_sensors_process+0xf4>
     b08:	d8 01       	movw	r26, r16
     b0a:	14 96       	adiw	r26, 0x04	; 4
     b0c:	8d 91       	ld	r24, X+
     b0e:	9c 91       	ld	r25, X
     b10:	15 97       	sbiw	r26, 0x05	; 5
     b12:	41 81       	ldd	r20, Z+1	; 0x01
     b14:	52 81       	ldd	r21, Z+2	; 0x02
     b16:	84 17       	cp	r24, r20
     b18:	95 07       	cpc	r25, r21
     b1a:	69 f0       	breq	.+26     	; 0xb36 <qtm_key_sensors_process+0x106>
     b1c:	48 17       	cp	r20, r24
     b1e:	59 07       	cpc	r21, r25
     b20:	30 f4       	brcc	.+12     	; 0xb2e <qtm_key_sensors_process+0xfe>
     b22:	01 97       	sbiw	r24, 0x01	; 1
     b24:	14 96       	adiw	r26, 0x04	; 4
     b26:	8d 93       	st	X+, r24
     b28:	9c 93       	st	X, r25
     b2a:	15 97       	sbiw	r26, 0x05	; 5
     b2c:	04 c0       	rjmp	.+8      	; 0xb36 <qtm_key_sensors_process+0x106>
     b2e:	01 96       	adiw	r24, 0x01	; 1
     b30:	f8 01       	movw	r30, r16
     b32:	84 83       	std	Z+4, r24	; 0x04
     b34:	95 83       	std	Z+5, r25	; 0x05
     b36:	21 50       	subi	r18, 0x01	; 1
     b38:	d8 01       	movw	r26, r16
     b3a:	11 96       	adiw	r26, 0x01	; 1
     b3c:	2c 93       	st	X, r18
     b3e:	38 c1       	rjmp	.+624    	; 0xdb0 <qtm_key_sensors_process+0x380>
     b40:	f8 01       	movw	r30, r16
     b42:	31 c1       	rjmp	.+610    	; 0xda6 <qtm_key_sensors_process+0x376>
     b44:	d8 01       	movw	r26, r16
     b46:	14 96       	adiw	r26, 0x04	; 4
     b48:	2d 91       	ld	r18, X+
     b4a:	3c 91       	ld	r19, X
     b4c:	15 97       	sbiw	r26, 0x05	; 5
     b4e:	12 96       	adiw	r26, 0x02	; 2
     b50:	8d 91       	ld	r24, X+
     b52:	9c 91       	ld	r25, X
     b54:	13 97       	sbiw	r26, 0x03	; 3
     b56:	dc 01       	movw	r26, r24
     b58:	11 96       	adiw	r26, 0x01	; 1
     b5a:	4d 91       	ld	r20, X+
     b5c:	5c 91       	ld	r21, X
     b5e:	12 97       	sbiw	r26, 0x02	; 2
     b60:	24 17       	cp	r18, r20
     b62:	35 07       	cpc	r19, r21
     b64:	09 f4       	brne	.+2      	; 0xb68 <qtm_key_sensors_process+0x138>
     b66:	32 c1       	rjmp	.+612    	; 0xdcc <qtm_key_sensors_process+0x39c>
     b68:	8e 81       	ldd	r24, Y+6	; 0x06
     b6a:	9f 81       	ldd	r25, Y+7	; 0x07
     b6c:	42 17       	cp	r20, r18
     b6e:	53 07       	cpc	r21, r19
     b70:	e0 f4       	brcc	.+56     	; 0xbaa <qtm_key_sensors_process+0x17a>
     b72:	24 1b       	sub	r18, r20
     b74:	35 0b       	sbc	r19, r21
     b76:	dc 01       	movw	r26, r24
     b78:	aa 0d       	add	r26, r10
     b7a:	bb 1d       	adc	r27, r11
     b7c:	8c 91       	ld	r24, X
     b7e:	90 e0       	ldi	r25, 0x00	; 0
     b80:	05 80       	ldd	r0, Z+5	; 0x05
     b82:	02 c0       	rjmp	.+4      	; 0xb88 <qtm_key_sensors_process+0x158>
     b84:	95 95       	asr	r25
     b86:	87 95       	ror	r24
     b88:	0a 94       	dec	r0
     b8a:	e2 f7       	brpl	.-8      	; 0xb84 <qtm_key_sensors_process+0x154>
     b8c:	99 27       	eor	r25, r25
     b8e:	28 17       	cp	r18, r24
     b90:	39 07       	cpc	r19, r25
     b92:	08 f4       	brcc	.+2      	; 0xb96 <qtm_key_sensors_process+0x166>
     b94:	1b c1       	rjmp	.+566    	; 0xdcc <qtm_key_sensors_process+0x39c>
     b96:	84 81       	ldd	r24, Z+4	; 0x04
     b98:	88 23       	and	r24, r24
     b9a:	09 f4       	brne	.+2      	; 0xb9e <qtm_key_sensors_process+0x16e>
     b9c:	17 c1       	rjmp	.+558    	; 0xdcc <qtm_key_sensors_process+0x39c>
     b9e:	f8 01       	movw	r30, r16
     ba0:	30 82       	st	Z, r3
     ba2:	ea 81       	ldd	r30, Y+2	; 0x02
     ba4:	fb 81       	ldd	r31, Y+3	; 0x03
     ba6:	24 81       	ldd	r18, Z+4	; 0x04
     ba8:	1a c0       	rjmp	.+52     	; 0xbde <qtm_key_sensors_process+0x1ae>
     baa:	fc 01       	movw	r30, r24
     bac:	ea 0d       	add	r30, r10
     bae:	fb 1d       	adc	r31, r11
     bb0:	42 1b       	sub	r20, r18
     bb2:	53 0b       	sbc	r21, r19
     bb4:	80 81       	ld	r24, Z
     bb6:	90 e0       	ldi	r25, 0x00	; 0
     bb8:	48 17       	cp	r20, r24
     bba:	59 07       	cpc	r21, r25
     bbc:	08 f4       	brcc	.+2      	; 0xbc0 <qtm_key_sensors_process+0x190>
     bbe:	06 c1       	rjmp	.+524    	; 0xdcc <qtm_key_sensors_process+0x39c>
     bc0:	82 81       	ldd	r24, Z+2	; 0x02
     bc2:	88 23       	and	r24, r24
     bc4:	31 f0       	breq	.+12     	; 0xbd2 <qtm_key_sensors_process+0x1a2>
     bc6:	b4 01       	movw	r22, r8
     bc8:	ce 01       	movw	r24, r28
     bca:	0e 94 85 04 	call	0x90a	; 0x90a <check_for_aks_block>
     bce:	81 11       	cpse	r24, r1
     bd0:	fd c0       	rjmp	.+506    	; 0xdcc <qtm_key_sensors_process+0x39c>
     bd2:	e4 e0       	ldi	r30, 0x04	; 4
     bd4:	d8 01       	movw	r26, r16
     bd6:	ec 93       	st	X, r30
     bd8:	ea 81       	ldd	r30, Y+2	; 0x02
     bda:	fb 81       	ldd	r31, Y+3	; 0x03
     bdc:	22 81       	ldd	r18, Z+2	; 0x02
     bde:	8c 81       	ldd	r24, Y+4	; 0x04
     be0:	9d 81       	ldd	r25, Y+5	; 0x05
     be2:	fc 01       	movw	r30, r24
     be4:	ee 0d       	add	r30, r14
     be6:	ff 1d       	adc	r31, r15
     be8:	21 83       	std	Z+1, r18	; 0x01
     bea:	e2 c0       	rjmp	.+452    	; 0xdb0 <qtm_key_sensors_process+0x380>
     bec:	d8 01       	movw	r26, r16
     bee:	14 96       	adiw	r26, 0x04	; 4
     bf0:	2d 91       	ld	r18, X+
     bf2:	3c 91       	ld	r19, X
     bf4:	15 97       	sbiw	r26, 0x05	; 5
     bf6:	12 96       	adiw	r26, 0x02	; 2
     bf8:	ed 91       	ld	r30, X+
     bfa:	fc 91       	ld	r31, X
     bfc:	13 97       	sbiw	r26, 0x03	; 3
     bfe:	81 81       	ldd	r24, Z+1	; 0x01
     c00:	92 81       	ldd	r25, Z+2	; 0x02
     c02:	82 17       	cp	r24, r18
     c04:	93 07       	cpc	r25, r19
     c06:	08 f4       	brcc	.+2      	; 0xc0a <qtm_key_sensors_process+0x1da>
     c08:	d7 c0       	rjmp	.+430    	; 0xdb8 <qtm_key_sensors_process+0x388>
     c0a:	ee 81       	ldd	r30, Y+6	; 0x06
     c0c:	ff 81       	ldd	r31, Y+7	; 0x07
     c0e:	ea 0d       	add	r30, r10
     c10:	fb 1d       	adc	r31, r11
     c12:	82 1b       	sub	r24, r18
     c14:	93 0b       	sbc	r25, r19
     c16:	20 81       	ld	r18, Z
     c18:	30 e0       	ldi	r19, 0x00	; 0
     c1a:	28 17       	cp	r18, r24
     c1c:	39 07       	cpc	r19, r25
     c1e:	08 f0       	brcs	.+2      	; 0xc22 <qtm_key_sensors_process+0x1f2>
     c20:	af c0       	rjmp	.+350    	; 0xd80 <qtm_key_sensors_process+0x350>
     c22:	82 81       	ldd	r24, Z+2	; 0x02
     c24:	88 23       	and	r24, r24
     c26:	31 f0       	breq	.+12     	; 0xc34 <qtm_key_sensors_process+0x204>
     c28:	b4 01       	movw	r22, r8
     c2a:	ce 01       	movw	r24, r28
     c2c:	0e 94 85 04 	call	0x90a	; 0x90a <check_for_aks_block>
     c30:	81 11       	cpse	r24, r1
     c32:	cc c0       	rjmp	.+408    	; 0xdcc <qtm_key_sensors_process+0x39c>
     c34:	f8 01       	movw	r30, r16
     c36:	81 81       	ldd	r24, Z+1	; 0x01
     c38:	88 23       	and	r24, r24
     c3a:	09 f4       	brne	.+2      	; 0xc3e <qtm_key_sensors_process+0x20e>
     c3c:	67 c0       	rjmp	.+206    	; 0xd0c <qtm_key_sensors_process+0x2dc>
     c3e:	81 50       	subi	r24, 0x01	; 1
     c40:	b6 c0       	rjmp	.+364    	; 0xdae <qtm_key_sensors_process+0x37e>
     c42:	a8 81       	ld	r26, Y
     c44:	b9 81       	ldd	r27, Y+1	; 0x01
     c46:	80 85       	ldd	r24, Z+8	; 0x08
     c48:	13 96       	adiw	r26, 0x03	; 3
     c4a:	8c 93       	st	X, r24
     c4c:	ec 81       	ldd	r30, Y+4	; 0x04
     c4e:	fd 81       	ldd	r31, Y+5	; 0x05
     c50:	ee 0d       	add	r30, r14
     c52:	ff 1d       	adc	r31, r15
     c54:	44 81       	ldd	r20, Z+4	; 0x04
     c56:	55 81       	ldd	r21, Z+5	; 0x05
     c58:	a2 81       	ldd	r26, Z+2	; 0x02
     c5a:	b3 81       	ldd	r27, Z+3	; 0x03
     c5c:	11 96       	adiw	r26, 0x01	; 1
     c5e:	8d 91       	ld	r24, X+
     c60:	9c 91       	ld	r25, X
     c62:	12 97       	sbiw	r26, 0x02	; 2
     c64:	84 17       	cp	r24, r20
     c66:	95 07       	cpc	r25, r21
     c68:	c0 f0       	brcs	.+48     	; 0xc9a <qtm_key_sensors_process+0x26a>
     c6a:	ae 81       	ldd	r26, Y+6	; 0x06
     c6c:	bf 81       	ldd	r27, Y+7	; 0x07
     c6e:	aa 0d       	add	r26, r10
     c70:	bb 1d       	adc	r27, r11
     c72:	6c 91       	ld	r22, X
     c74:	26 2f       	mov	r18, r22
     c76:	30 e0       	ldi	r19, 0x00	; 0
     c78:	11 96       	adiw	r26, 0x01	; 1
     c7a:	7c 91       	ld	r23, X
     c7c:	7f 5f       	subi	r23, 0xFF	; 255
     c7e:	02 c0       	rjmp	.+4      	; 0xc84 <qtm_key_sensors_process+0x254>
     c80:	35 95       	asr	r19
     c82:	27 95       	ror	r18
     c84:	7a 95       	dec	r23
     c86:	e2 f7       	brpl	.-8      	; 0xc80 <qtm_key_sensors_process+0x250>
     c88:	84 1b       	sub	r24, r20
     c8a:	95 0b       	sbc	r25, r21
     c8c:	62 1b       	sub	r22, r18
     c8e:	26 2f       	mov	r18, r22
     c90:	30 e0       	ldi	r19, 0x00	; 0
     c92:	28 17       	cp	r18, r24
     c94:	39 07       	cpc	r19, r25
     c96:	08 f4       	brcc	.+2      	; 0xc9a <qtm_key_sensors_process+0x26a>
     c98:	97 c0       	rjmp	.+302    	; 0xdc8 <qtm_key_sensors_process+0x398>
     c9a:	70 82       	st	Z, r7
     c9c:	ea 81       	ldd	r30, Y+2	; 0x02
     c9e:	fb 81       	ldd	r31, Y+3	; 0x03
     ca0:	22 81       	ldd	r18, Z+2	; 0x02
     ca2:	8c 81       	ldd	r24, Y+4	; 0x04
     ca4:	9d 81       	ldd	r25, Y+5	; 0x05
     ca6:	fc 01       	movw	r30, r24
     ca8:	ee 0d       	add	r30, r14
     caa:	ff 1d       	adc	r31, r15
     cac:	21 83       	std	Z+1, r18	; 0x01
     cae:	42 c0       	rjmp	.+132    	; 0xd34 <qtm_key_sensors_process+0x304>
     cb0:	d8 01       	movw	r26, r16
     cb2:	14 96       	adiw	r26, 0x04	; 4
     cb4:	6d 91       	ld	r22, X+
     cb6:	7c 91       	ld	r23, X
     cb8:	15 97       	sbiw	r26, 0x05	; 5
     cba:	12 96       	adiw	r26, 0x02	; 2
     cbc:	ed 91       	ld	r30, X+
     cbe:	fc 91       	ld	r31, X
     cc0:	13 97       	sbiw	r26, 0x03	; 3
     cc2:	21 81       	ldd	r18, Z+1	; 0x01
     cc4:	32 81       	ldd	r19, Z+2	; 0x02
     cc6:	26 17       	cp	r18, r22
     cc8:	37 07       	cpc	r19, r23
     cca:	58 f4       	brcc	.+22     	; 0xce2 <qtm_key_sensors_process+0x2b2>
     ccc:	11 96       	adiw	r26, 0x01	; 1
     cce:	8c 91       	ld	r24, X
     cd0:	11 97       	sbiw	r26, 0x01	; 1
     cd2:	81 11       	cpse	r24, r1
     cd4:	02 c0       	rjmp	.+4      	; 0xcda <qtm_key_sensors_process+0x2aa>
     cd6:	cc 92       	st	X, r12
     cd8:	77 c0       	rjmp	.+238    	; 0xdc8 <qtm_key_sensors_process+0x398>
     cda:	81 50       	subi	r24, 0x01	; 1
     cdc:	f8 01       	movw	r30, r16
     cde:	81 83       	std	Z+1, r24	; 0x01
     ce0:	73 c0       	rjmp	.+230    	; 0xdc8 <qtm_key_sensors_process+0x398>
     ce2:	ee 81       	ldd	r30, Y+6	; 0x06
     ce4:	ff 81       	ldd	r31, Y+7	; 0x07
     ce6:	ea 0d       	add	r30, r10
     ce8:	fb 1d       	adc	r31, r11
     cea:	80 81       	ld	r24, Z
     cec:	48 2f       	mov	r20, r24
     cee:	50 e0       	ldi	r21, 0x00	; 0
     cf0:	91 81       	ldd	r25, Z+1	; 0x01
     cf2:	9f 5f       	subi	r25, 0xFF	; 255
     cf4:	02 c0       	rjmp	.+4      	; 0xcfa <qtm_key_sensors_process+0x2ca>
     cf6:	55 95       	asr	r21
     cf8:	47 95       	ror	r20
     cfa:	9a 95       	dec	r25
     cfc:	e2 f7       	brpl	.-8      	; 0xcf6 <qtm_key_sensors_process+0x2c6>
     cfe:	26 1b       	sub	r18, r22
     d00:	37 0b       	sbc	r19, r23
     d02:	84 1b       	sub	r24, r20
     d04:	90 e0       	ldi	r25, 0x00	; 0
     d06:	82 17       	cp	r24, r18
     d08:	93 07       	cpc	r25, r19
     d0a:	60 f4       	brcc	.+24     	; 0xd24 <qtm_key_sensors_process+0x2f4>
     d0c:	d8 01       	movw	r26, r16
     d0e:	6c 92       	st	X, r6
     d10:	ea 81       	ldd	r30, Y+2	; 0x02
     d12:	fb 81       	ldd	r31, Y+3	; 0x03
     d14:	23 81       	ldd	r18, Z+3	; 0x03
     d16:	8c 81       	ldd	r24, Y+4	; 0x04
     d18:	9d 81       	ldd	r25, Y+5	; 0x05
     d1a:	fc 01       	movw	r30, r24
     d1c:	ee 0d       	add	r30, r14
     d1e:	ff 1d       	adc	r31, r15
     d20:	21 83       	std	Z+1, r18	; 0x01
     d22:	52 c0       	rjmp	.+164    	; 0xdc8 <qtm_key_sensors_process+0x398>
     d24:	f8 01       	movw	r30, r16
     d26:	81 81       	ldd	r24, Z+1	; 0x01
     d28:	81 11       	cpse	r24, r1
     d2a:	02 c0       	rjmp	.+4      	; 0xd30 <qtm_key_sensors_process+0x300>
     d2c:	c0 82       	st	Z, r12
     d2e:	4c c0       	rjmp	.+152    	; 0xdc8 <qtm_key_sensors_process+0x398>
     d30:	81 50       	subi	r24, 0x01	; 1
     d32:	81 83       	std	Z+1, r24	; 0x01
     d34:	22 24       	eor	r2, r2
     d36:	23 94       	inc	r2
     d38:	3b c0       	rjmp	.+118    	; 0xdb0 <qtm_key_sensors_process+0x380>
     d3a:	d8 01       	movw	r26, r16
     d3c:	14 96       	adiw	r26, 0x04	; 4
     d3e:	2d 91       	ld	r18, X+
     d40:	3c 91       	ld	r19, X
     d42:	15 97       	sbiw	r26, 0x05	; 5
     d44:	12 96       	adiw	r26, 0x02	; 2
     d46:	8d 91       	ld	r24, X+
     d48:	9c 91       	ld	r25, X
     d4a:	13 97       	sbiw	r26, 0x03	; 3
     d4c:	dc 01       	movw	r26, r24
     d4e:	11 96       	adiw	r26, 0x01	; 1
     d50:	8d 91       	ld	r24, X+
     d52:	9c 91       	ld	r25, X
     d54:	12 97       	sbiw	r26, 0x02	; 2
     d56:	82 17       	cp	r24, r18
     d58:	93 07       	cpc	r25, r19
     d5a:	68 f5       	brcc	.+90     	; 0xdb6 <qtm_key_sensors_process+0x386>
     d5c:	28 1b       	sub	r18, r24
     d5e:	39 0b       	sbc	r19, r25
     d60:	ae 81       	ldd	r26, Y+6	; 0x06
     d62:	bf 81       	ldd	r27, Y+7	; 0x07
     d64:	aa 0d       	add	r26, r10
     d66:	bb 1d       	adc	r27, r11
     d68:	8c 91       	ld	r24, X
     d6a:	90 e0       	ldi	r25, 0x00	; 0
     d6c:	05 80       	ldd	r0, Z+5	; 0x05
     d6e:	02 c0       	rjmp	.+4      	; 0xd74 <qtm_key_sensors_process+0x344>
     d70:	95 95       	asr	r25
     d72:	87 95       	ror	r24
     d74:	0a 94       	dec	r0
     d76:	e2 f7       	brpl	.-8      	; 0xd70 <qtm_key_sensors_process+0x340>
     d78:	99 27       	eor	r25, r25
     d7a:	28 17       	cp	r18, r24
     d7c:	39 07       	cpc	r19, r25
     d7e:	18 f4       	brcc	.+6      	; 0xd86 <qtm_key_sensors_process+0x356>
     d80:	f8 01       	movw	r30, r16
     d82:	c0 82       	st	Z, r12
     d84:	1a c0       	rjmp	.+52     	; 0xdba <qtm_key_sensors_process+0x38a>
     d86:	d8 01       	movw	r26, r16
     d88:	11 96       	adiw	r26, 0x01	; 1
     d8a:	8c 91       	ld	r24, X
     d8c:	11 97       	sbiw	r26, 0x01	; 1
     d8e:	81 11       	cpse	r24, r1
     d90:	0c c0       	rjmp	.+24     	; 0xdaa <qtm_key_sensors_process+0x37a>
     d92:	81 e0       	ldi	r24, 0x01	; 1
     d94:	8c 93       	st	X, r24
     d96:	8c 81       	ldd	r24, Y+4	; 0x04
     d98:	9d 81       	ldd	r25, Y+5	; 0x05
     d9a:	fc 01       	movw	r30, r24
     d9c:	ee 0d       	add	r30, r14
     d9e:	ff 1d       	adc	r31, r15
     da0:	02 80       	ldd	r0, Z+2	; 0x02
     da2:	f3 81       	ldd	r31, Z+3	; 0x03
     da4:	e0 2d       	mov	r30, r0
     da6:	c0 82       	st	Z, r12
     da8:	11 c0       	rjmp	.+34     	; 0xdcc <qtm_key_sensors_process+0x39c>
     daa:	81 50       	subi	r24, 0x01	; 1
     dac:	f8 01       	movw	r30, r16
     dae:	81 83       	std	Z+1, r24	; 0x01
     db0:	dd 24       	eor	r13, r13
     db2:	d3 94       	inc	r13
     db4:	0b c0       	rjmp	.+22     	; 0xdcc <qtm_key_sensors_process+0x39c>
     db6:	d8 01       	movw	r26, r16
     db8:	cc 92       	st	X, r12
     dba:	8c 81       	ldd	r24, Y+4	; 0x04
     dbc:	9d 81       	ldd	r25, Y+5	; 0x05
     dbe:	fc 01       	movw	r30, r24
     dc0:	ee 0d       	add	r30, r14
     dc2:	ff 1d       	adc	r31, r15
     dc4:	11 82       	std	Z+1, r1	; 0x01
     dc6:	02 c0       	rjmp	.+4      	; 0xdcc <qtm_key_sensors_process+0x39c>
     dc8:	22 24       	eor	r2, r2
     dca:	23 94       	inc	r2
     dcc:	bf ef       	ldi	r27, 0xFF	; 255
     dce:	8b 1a       	sub	r8, r27
     dd0:	9b 0a       	sbc	r9, r27
     dd2:	e3 e0       	ldi	r30, 0x03	; 3
     dd4:	ae 0e       	add	r10, r30
     dd6:	b1 1c       	adc	r11, r1
     dd8:	53 ce       	rjmp	.-858    	; 0xa80 <qtm_key_sensors_process+0x50>
     dda:	e8 81       	ld	r30, Y
     ddc:	f9 81       	ldd	r31, Y+1	; 0x01
     dde:	80 81       	ld	r24, Z
     de0:	87 ff       	sbrs	r24, 7
     de2:	23 c0       	rjmp	.+70     	; 0xe2a <qtm_key_sensors_process+0x3fa>
     de4:	40 e0       	ldi	r20, 0x00	; 0
     de6:	50 e0       	ldi	r21, 0x00	; 0
     de8:	20 e0       	ldi	r18, 0x00	; 0
     dea:	30 e0       	ldi	r19, 0x00	; 0
     dec:	ea 81       	ldd	r30, Y+2	; 0x02
     dee:	fb 81       	ldd	r31, Y+3	; 0x03
     df0:	80 81       	ld	r24, Z
     df2:	91 81       	ldd	r25, Z+1	; 0x01
     df4:	28 17       	cp	r18, r24
     df6:	39 07       	cpc	r19, r25
     df8:	98 f4       	brcc	.+38     	; 0xe20 <qtm_key_sensors_process+0x3f0>
     dfa:	ec 81       	ldd	r30, Y+4	; 0x04
     dfc:	fd 81       	ldd	r31, Y+5	; 0x05
     dfe:	e4 0f       	add	r30, r20
     e00:	f5 1f       	adc	r31, r21
     e02:	a2 81       	ldd	r26, Z+2	; 0x02
     e04:	b3 81       	ldd	r27, Z+3	; 0x03
     e06:	8c 91       	ld	r24, X
     e08:	80 fd       	sbrc	r24, 0
     e0a:	05 c0       	rjmp	.+10     	; 0xe16 <qtm_key_sensors_process+0x3e6>
     e0c:	90 81       	ld	r25, Z
     e0e:	97 7f       	andi	r25, 0xF7	; 247
     e10:	11 f0       	breq	.+4      	; 0xe16 <qtm_key_sensors_process+0x3e6>
     e12:	81 60       	ori	r24, 0x01	; 1
     e14:	8c 93       	st	X, r24
     e16:	2f 5f       	subi	r18, 0xFF	; 255
     e18:	3f 4f       	sbci	r19, 0xFF	; 255
     e1a:	4a 5f       	subi	r20, 0xFA	; 250
     e1c:	5f 4f       	sbci	r21, 0xFF	; 255
     e1e:	e6 cf       	rjmp	.-52     	; 0xdec <qtm_key_sensors_process+0x3bc>
     e20:	e8 81       	ld	r30, Y
     e22:	f9 81       	ldd	r31, Y+1	; 0x01
     e24:	80 81       	ld	r24, Z
     e26:	8f 77       	andi	r24, 0x7F	; 127
     e28:	80 83       	st	Z, r24
     e2a:	d1 10       	cpse	r13, r1
     e2c:	07 c0       	rjmp	.+14     	; 0xe3c <qtm_key_sensors_process+0x40c>
     e2e:	e8 81       	ld	r30, Y
     e30:	f9 81       	ldd	r31, Y+1	; 0x01
     e32:	21 10       	cpse	r2, r1
     e34:	6f c0       	rjmp	.+222    	; 0xf14 <qtm_key_sensors_process+0x4e4>
     e36:	80 81       	ld	r24, Z
     e38:	8e 7f       	andi	r24, 0xFE	; 254
     e3a:	6e c0       	rjmp	.+220    	; 0xf18 <qtm_key_sensors_process+0x4e8>
     e3c:	ea 81       	ldd	r30, Y+2	; 0x02
     e3e:	fb 81       	ldd	r31, Y+3	; 0x03
     e40:	81 85       	ldd	r24, Z+9	; 0x09
     e42:	88 23       	and	r24, r24
     e44:	a1 f3       	breq	.-24     	; 0xe2e <qtm_key_sensors_process+0x3fe>
     e46:	e8 81       	ld	r30, Y
     e48:	f9 81       	ldd	r31, Y+1	; 0x01
     e4a:	80 81       	ld	r24, Z
     e4c:	80 68       	ori	r24, 0x80	; 128
     e4e:	80 83       	st	Z, r24
     e50:	ea 81       	ldd	r30, Y+2	; 0x02
     e52:	fb 81       	ldd	r31, Y+3	; 0x03
     e54:	81 85       	ldd	r24, Z+9	; 0x09
     e56:	81 30       	cpi	r24, 0x01	; 1
     e58:	51 f7       	brne	.-44     	; 0xe2e <qtm_key_sensors_process+0x3fe>
     e5a:	40 e0       	ldi	r20, 0x00	; 0
     e5c:	50 e0       	ldi	r21, 0x00	; 0
     e5e:	20 e0       	ldi	r18, 0x00	; 0
     e60:	30 e0       	ldi	r19, 0x00	; 0
     e62:	96 e0       	ldi	r25, 0x06	; 6
     e64:	d9 2e       	mov	r13, r25
     e66:	ea 81       	ldd	r30, Y+2	; 0x02
     e68:	fb 81       	ldd	r31, Y+3	; 0x03
     e6a:	60 81       	ld	r22, Z
     e6c:	71 81       	ldd	r23, Z+1	; 0x01
     e6e:	26 17       	cp	r18, r22
     e70:	37 07       	cpc	r19, r23
     e72:	e8 f6       	brcc	.-70     	; 0xe2e <qtm_key_sensors_process+0x3fe>
     e74:	0c 81       	ldd	r16, Y+4	; 0x04
     e76:	1d 81       	ldd	r17, Y+5	; 0x05
     e78:	fa 01       	movw	r30, r20
     e7a:	ee 0f       	add	r30, r30
     e7c:	ff 1f       	adc	r31, r31
     e7e:	e0 0f       	add	r30, r16
     e80:	f1 1f       	adc	r31, r17
     e82:	80 81       	ld	r24, Z
     e84:	98 2f       	mov	r25, r24
     e86:	97 7f       	andi	r25, 0xF7	; 247
     e88:	a1 f1       	breq	.+104    	; 0xef2 <qtm_key_sensors_process+0x4c2>
     e8a:	85 38       	cpi	r24, 0x85	; 133
     e8c:	11 f0       	breq	.+4      	; 0xe92 <qtm_key_sensors_process+0x462>
     e8e:	83 30       	cpi	r24, 0x03	; 3
     e90:	b1 f5       	brne	.+108    	; 0xefe <qtm_key_sensors_process+0x4ce>
     e92:	ee 80       	ldd	r14, Y+6	; 0x06
     e94:	ff 80       	ldd	r15, Y+7	; 0x07
     e96:	d7 01       	movw	r26, r14
     e98:	a4 0f       	add	r26, r20
     e9a:	b5 1f       	adc	r27, r21
     e9c:	12 96       	adiw	r26, 0x02	; 2
     e9e:	bc 90       	ld	r11, X
     ea0:	bb 20       	and	r11, r11
     ea2:	39 f1       	breq	.+78     	; 0xef2 <qtm_key_sensors_process+0x4c2>
     ea4:	80 e0       	ldi	r24, 0x00	; 0
     ea6:	90 e0       	ldi	r25, 0x00	; 0
     ea8:	c1 2c       	mov	r12, r1
     eaa:	86 17       	cp	r24, r22
     eac:	97 07       	cpc	r25, r23
     eae:	f8 f4       	brcc	.+62     	; 0xeee <qtm_key_sensors_process+0x4be>
     eb0:	28 17       	cp	r18, r24
     eb2:	39 07       	cpc	r19, r25
     eb4:	d1 f0       	breq	.+52     	; 0xeea <qtm_key_sensors_process+0x4ba>
     eb6:	d8 9e       	mul	r13, r24
     eb8:	d0 01       	movw	r26, r0
     eba:	d9 9e       	mul	r13, r25
     ebc:	b0 0d       	add	r27, r0
     ebe:	11 24       	eor	r1, r1
     ec0:	a0 0f       	add	r26, r16
     ec2:	b1 1f       	adc	r27, r17
     ec4:	ac 91       	ld	r26, X
     ec6:	a4 30       	cpi	r26, 0x04	; 4
     ec8:	11 f0       	breq	.+4      	; 0xece <qtm_key_sensors_process+0x49e>
     eca:	a6 38       	cpi	r26, 0x86	; 134
     ecc:	71 f4       	brne	.+28     	; 0xeea <qtm_key_sensors_process+0x4ba>
     ece:	dc 01       	movw	r26, r24
     ed0:	aa 0f       	add	r26, r26
     ed2:	bb 1f       	adc	r27, r27
     ed4:	a8 0f       	add	r26, r24
     ed6:	b9 1f       	adc	r27, r25
     ed8:	ae 0d       	add	r26, r14
     eda:	bf 1d       	adc	r27, r15
     edc:	12 96       	adiw	r26, 0x02	; 2
     ede:	ac 91       	ld	r26, X
     ee0:	ba 12       	cpse	r11, r26
     ee2:	03 c0       	rjmp	.+6      	; 0xeea <qtm_key_sensors_process+0x4ba>
     ee4:	cb 01       	movw	r24, r22
     ee6:	cc 24       	eor	r12, r12
     ee8:	c3 94       	inc	r12
     eea:	01 96       	adiw	r24, 0x01	; 1
     eec:	de cf       	rjmp	.-68     	; 0xeaa <qtm_key_sensors_process+0x47a>
     eee:	c1 10       	cpse	r12, r1
     ef0:	06 c0       	rjmp	.+12     	; 0xefe <qtm_key_sensors_process+0x4ce>
     ef2:	02 80       	ldd	r0, Z+2	; 0x02
     ef4:	f3 81       	ldd	r31, Z+3	; 0x03
     ef6:	e0 2d       	mov	r30, r0
     ef8:	80 81       	ld	r24, Z
     efa:	8e 7f       	andi	r24, 0xFE	; 254
     efc:	05 c0       	rjmp	.+10     	; 0xf08 <qtm_key_sensors_process+0x4d8>
     efe:	02 80       	ldd	r0, Z+2	; 0x02
     f00:	f3 81       	ldd	r31, Z+3	; 0x03
     f02:	e0 2d       	mov	r30, r0
     f04:	80 81       	ld	r24, Z
     f06:	81 60       	ori	r24, 0x01	; 1
     f08:	80 83       	st	Z, r24
     f0a:	2f 5f       	subi	r18, 0xFF	; 255
     f0c:	3f 4f       	sbci	r19, 0xFF	; 255
     f0e:	4d 5f       	subi	r20, 0xFD	; 253
     f10:	5f 4f       	sbci	r21, 0xFF	; 255
     f12:	a9 cf       	rjmp	.-174    	; 0xe66 <qtm_key_sensors_process+0x436>
     f14:	80 81       	ld	r24, Z
     f16:	81 60       	ori	r24, 0x01	; 1
     f18:	80 83       	st	Z, r24
     f1a:	80 91 5f 41 	lds	r24, 0x415F	; 0x80415f <qtm_local_ms_timecount>
     f1e:	90 91 60 41 	lds	r25, 0x4160	; 0x804160 <qtm_local_ms_timecount+0x1>
     f22:	e8 81       	ld	r30, Y
     f24:	f9 81       	ldd	r31, Y+1	; 0x01
     f26:	21 81       	ldd	r18, Z+1	; 0x01
     f28:	32 81       	ldd	r19, Z+2	; 0x02
     f2a:	a9 01       	movw	r20, r18
     f2c:	48 53       	subi	r20, 0x38	; 56
     f2e:	5f 4f       	sbci	r21, 0xFF	; 255
     f30:	48 17       	cp	r20, r24
     f32:	59 07       	cpc	r21, r25
     f34:	38 f4       	brcc	.+14     	; 0xf44 <qtm_key_sensors_process+0x514>
     f36:	82 1b       	sub	r24, r18
     f38:	93 0b       	sbc	r25, r19
     f3a:	aa 24       	eor	r10, r10
     f3c:	a3 94       	inc	r10
     f3e:	a3 e0       	ldi	r26, 0x03	; 3
     f40:	ba 2e       	mov	r11, r26
     f42:	44 c0       	rjmp	.+136    	; 0xfcc <qtm_key_sensors_process+0x59c>
     f44:	82 17       	cp	r24, r18
     f46:	93 07       	cpc	r25, r19
     f48:	10 f0       	brcs	.+4      	; 0xf4e <qtm_key_sensors_process+0x51e>
     f4a:	80 e0       	ldi	r24, 0x00	; 0
     f4c:	04 c1       	rjmp	.+520    	; 0x1156 <qtm_key_sensors_process+0x726>
     f4e:	82 1b       	sub	r24, r18
     f50:	93 0b       	sbc	r25, r19
     f52:	01 97       	sbiw	r24, 0x01	; 1
     f54:	89 3c       	cpi	r24, 0xC9	; 201
     f56:	91 05       	cpc	r25, r1
     f58:	c0 f3       	brcs	.-16     	; 0xf4a <qtm_key_sensors_process+0x51a>
     f5a:	ef cf       	rjmp	.-34     	; 0xf3a <qtm_key_sensors_process+0x50a>
     f5c:	88 5c       	subi	r24, 0xC8	; 200
     f5e:	91 09       	sbc	r25, r1
     f60:	e8 81       	ld	r30, Y
     f62:	f9 81       	ldd	r31, Y+1	; 0x01
     f64:	21 81       	ldd	r18, Z+1	; 0x01
     f66:	32 81       	ldd	r19, Z+2	; 0x02
     f68:	28 53       	subi	r18, 0x38	; 56
     f6a:	3f 4f       	sbci	r19, 0xFF	; 255
     f6c:	21 83       	std	Z+1, r18	; 0x01
     f6e:	32 83       	std	Z+2, r19	; 0x02
     f70:	23 81       	ldd	r18, Z+3	; 0x03
     f72:	21 11       	cpse	r18, r1
     f74:	96 c0       	rjmp	.+300    	; 0x10a2 <qtm_key_sensors_process+0x672>
     f76:	24 81       	ldd	r18, Z+4	; 0x04
     f78:	22 23       	and	r18, r18
     f7a:	11 f0       	breq	.+4      	; 0xf80 <qtm_key_sensors_process+0x550>
     f7c:	21 50       	subi	r18, 0x01	; 1
     f7e:	24 83       	std	Z+4, r18	; 0x04
     f80:	e8 81       	ld	r30, Y
     f82:	f9 81       	ldd	r31, Y+1	; 0x01
     f84:	25 81       	ldd	r18, Z+5	; 0x05
     f86:	22 23       	and	r18, r18
     f88:	11 f0       	breq	.+4      	; 0xf8e <qtm_key_sensors_process+0x55e>
     f8a:	21 50       	subi	r18, 0x01	; 1
     f8c:	25 83       	std	Z+5, r18	; 0x05
     f8e:	8a 80       	ldd	r8, Y+2	; 0x02
     f90:	9b 80       	ldd	r9, Y+3	; 0x03
     f92:	d4 01       	movw	r26, r8
     f94:	16 96       	adiw	r26, 0x06	; 6
     f96:	2c 91       	ld	r18, X
     f98:	16 97       	sbiw	r26, 0x06	; 6
     f9a:	21 11       	cpse	r18, r1
     f9c:	1b c0       	rjmp	.+54     	; 0xfd4 <qtm_key_sensors_process+0x5a4>
     f9e:	8a 80       	ldd	r8, Y+2	; 0x02
     fa0:	9b 80       	ldd	r9, Y+3	; 0x03
     fa2:	f4 01       	movw	r30, r8
     fa4:	27 81       	ldd	r18, Z+7	; 0x07
     fa6:	21 11       	cpse	r18, r1
     fa8:	48 c0       	rjmp	.+144    	; 0x103a <qtm_key_sensors_process+0x60a>
     faa:	ea 81       	ldd	r30, Y+2	; 0x02
     fac:	fb 81       	ldd	r31, Y+3	; 0x03
     fae:	23 81       	ldd	r18, Z+3	; 0x03
     fb0:	22 23       	and	r18, r18
     fb2:	61 f0       	breq	.+24     	; 0xfcc <qtm_key_sensors_process+0x59c>
     fb4:	20 e0       	ldi	r18, 0x00	; 0
     fb6:	30 e0       	ldi	r19, 0x00	; 0
     fb8:	a0 e0       	ldi	r26, 0x00	; 0
     fba:	b0 e0       	ldi	r27, 0x00	; 0
     fbc:	ea 81       	ldd	r30, Y+2	; 0x02
     fbe:	fb 81       	ldd	r31, Y+3	; 0x03
     fc0:	40 81       	ld	r20, Z
     fc2:	51 81       	ldd	r21, Z+1	; 0x01
     fc4:	a4 17       	cp	r26, r20
     fc6:	b5 07       	cpc	r27, r21
     fc8:	08 f4       	brcc	.+2      	; 0xfcc <qtm_key_sensors_process+0x59c>
     fca:	6e c0       	rjmp	.+220    	; 0x10a8 <qtm_key_sensors_process+0x678>
     fcc:	89 3c       	cpi	r24, 0xC9	; 201
     fce:	91 05       	cpc	r25, r1
     fd0:	28 f6       	brcc	.-118    	; 0xf5c <qtm_key_sensors_process+0x52c>
     fd2:	bb cf       	rjmp	.-138    	; 0xf4a <qtm_key_sensors_process+0x51a>
     fd4:	08 81       	ld	r16, Y
     fd6:	19 81       	ldd	r17, Y+1	; 0x01
     fd8:	f8 01       	movw	r30, r16
     fda:	24 81       	ldd	r18, Z+4	; 0x04
     fdc:	21 11       	cpse	r18, r1
     fde:	df cf       	rjmp	.-66     	; 0xf9e <qtm_key_sensors_process+0x56e>
     fe0:	ed 90       	ld	r14, X+
     fe2:	fc 90       	ld	r15, X
     fe4:	60 e0       	ldi	r22, 0x00	; 0
     fe6:	70 e0       	ldi	r23, 0x00	; 0
     fe8:	40 e0       	ldi	r20, 0x00	; 0
     fea:	50 e0       	ldi	r21, 0x00	; 0
     fec:	4e 15       	cp	r20, r14
     fee:	5f 05       	cpc	r21, r15
     ff0:	f1 f0       	breq	.+60     	; 0x102e <qtm_key_sensors_process+0x5fe>
     ff2:	ec 81       	ldd	r30, Y+4	; 0x04
     ff4:	fd 81       	ldd	r31, Y+5	; 0x05
     ff6:	e6 0f       	add	r30, r22
     ff8:	f7 1f       	adc	r31, r23
     ffa:	20 81       	ld	r18, Z
     ffc:	23 30       	cpi	r18, 0x03	; 3
     ffe:	11 f0       	breq	.+4      	; 0x1004 <qtm_key_sensors_process+0x5d4>
    1000:	28 30       	cpi	r18, 0x08	; 8
    1002:	81 f4       	brne	.+32     	; 0x1024 <qtm_key_sensors_process+0x5f4>
    1004:	24 81       	ldd	r18, Z+4	; 0x04
    1006:	35 81       	ldd	r19, Z+5	; 0x05
    1008:	c2 80       	ldd	r12, Z+2	; 0x02
    100a:	d3 80       	ldd	r13, Z+3	; 0x03
    100c:	d6 01       	movw	r26, r12
    100e:	11 96       	adiw	r26, 0x01	; 1
    1010:	cd 90       	ld	r12, X+
    1012:	dc 90       	ld	r13, X
    1014:	12 97       	sbiw	r26, 0x02	; 2
    1016:	2c 15       	cp	r18, r12
    1018:	3d 05       	cpc	r19, r13
    101a:	20 f4       	brcc	.+8      	; 0x1024 <qtm_key_sensors_process+0x5f4>
    101c:	2f 5f       	subi	r18, 0xFF	; 255
    101e:	3f 4f       	sbci	r19, 0xFF	; 255
    1020:	24 83       	std	Z+4, r18	; 0x04
    1022:	35 83       	std	Z+5, r19	; 0x05
    1024:	4f 5f       	subi	r20, 0xFF	; 255
    1026:	5f 4f       	sbci	r21, 0xFF	; 255
    1028:	6a 5f       	subi	r22, 0xFA	; 250
    102a:	7f 4f       	sbci	r23, 0xFF	; 255
    102c:	df cf       	rjmp	.-66     	; 0xfec <qtm_key_sensors_process+0x5bc>
    102e:	f4 01       	movw	r30, r8
    1030:	26 81       	ldd	r18, Z+6	; 0x06
    1032:	d8 01       	movw	r26, r16
    1034:	14 96       	adiw	r26, 0x04	; 4
    1036:	2c 93       	st	X, r18
    1038:	b2 cf       	rjmp	.-156    	; 0xf9e <qtm_key_sensors_process+0x56e>
    103a:	08 81       	ld	r16, Y
    103c:	19 81       	ldd	r17, Y+1	; 0x01
    103e:	d8 01       	movw	r26, r16
    1040:	15 96       	adiw	r26, 0x05	; 5
    1042:	2c 91       	ld	r18, X
    1044:	21 11       	cpse	r18, r1
    1046:	b1 cf       	rjmp	.-158    	; 0xfaa <qtm_key_sensors_process+0x57a>
    1048:	e0 80       	ld	r14, Z
    104a:	f1 80       	ldd	r15, Z+1	; 0x01
    104c:	60 e0       	ldi	r22, 0x00	; 0
    104e:	70 e0       	ldi	r23, 0x00	; 0
    1050:	40 e0       	ldi	r20, 0x00	; 0
    1052:	50 e0       	ldi	r21, 0x00	; 0
    1054:	4e 15       	cp	r20, r14
    1056:	5f 05       	cpc	r21, r15
    1058:	f1 f0       	breq	.+60     	; 0x1096 <qtm_key_sensors_process+0x666>
    105a:	ec 81       	ldd	r30, Y+4	; 0x04
    105c:	fd 81       	ldd	r31, Y+5	; 0x05
    105e:	e6 0f       	add	r30, r22
    1060:	f7 1f       	adc	r31, r23
    1062:	20 81       	ld	r18, Z
    1064:	23 30       	cpi	r18, 0x03	; 3
    1066:	11 f0       	breq	.+4      	; 0x106c <qtm_key_sensors_process+0x63c>
    1068:	28 30       	cpi	r18, 0x08	; 8
    106a:	81 f4       	brne	.+32     	; 0x108c <qtm_key_sensors_process+0x65c>
    106c:	24 81       	ldd	r18, Z+4	; 0x04
    106e:	35 81       	ldd	r19, Z+5	; 0x05
    1070:	c2 80       	ldd	r12, Z+2	; 0x02
    1072:	d3 80       	ldd	r13, Z+3	; 0x03
    1074:	d6 01       	movw	r26, r12
    1076:	11 96       	adiw	r26, 0x01	; 1
    1078:	cd 90       	ld	r12, X+
    107a:	dc 90       	ld	r13, X
    107c:	12 97       	sbiw	r26, 0x02	; 2
    107e:	c2 16       	cp	r12, r18
    1080:	d3 06       	cpc	r13, r19
    1082:	20 f4       	brcc	.+8      	; 0x108c <qtm_key_sensors_process+0x65c>
    1084:	21 50       	subi	r18, 0x01	; 1
    1086:	31 09       	sbc	r19, r1
    1088:	24 83       	std	Z+4, r18	; 0x04
    108a:	35 83       	std	Z+5, r19	; 0x05
    108c:	4f 5f       	subi	r20, 0xFF	; 255
    108e:	5f 4f       	sbci	r21, 0xFF	; 255
    1090:	6a 5f       	subi	r22, 0xFA	; 250
    1092:	7f 4f       	sbci	r23, 0xFF	; 255
    1094:	df cf       	rjmp	.-66     	; 0x1054 <qtm_key_sensors_process+0x624>
    1096:	f4 01       	movw	r30, r8
    1098:	27 81       	ldd	r18, Z+7	; 0x07
    109a:	d8 01       	movw	r26, r16
    109c:	15 96       	adiw	r26, 0x05	; 5
    109e:	2c 93       	st	X, r18
    10a0:	84 cf       	rjmp	.-248    	; 0xfaa <qtm_key_sensors_process+0x57a>
    10a2:	21 50       	subi	r18, 0x01	; 1
    10a4:	23 83       	std	Z+3, r18	; 0x03
    10a6:	81 cf       	rjmp	.-254    	; 0xfaa <qtm_key_sensors_process+0x57a>
    10a8:	a9 01       	movw	r20, r18
    10aa:	44 0f       	add	r20, r20
    10ac:	55 1f       	adc	r21, r21
    10ae:	ec 81       	ldd	r30, Y+4	; 0x04
    10b0:	fd 81       	ldd	r31, Y+5	; 0x05
    10b2:	e4 0f       	add	r30, r20
    10b4:	f5 1f       	adc	r31, r21
    10b6:	60 81       	ld	r22, Z
    10b8:	65 38       	cpi	r22, 0x85	; 133
    10ba:	09 f0       	breq	.+2      	; 0x10be <qtm_key_sensors_process+0x68e>
    10bc:	47 c0       	rjmp	.+142    	; 0x114c <qtm_key_sensors_process+0x71c>
    10be:	61 81       	ldd	r22, Z+1	; 0x01
    10c0:	66 23       	and	r22, r22
    10c2:	19 f0       	breq	.+6      	; 0x10ca <qtm_key_sensors_process+0x69a>
    10c4:	61 50       	subi	r22, 0x01	; 1
    10c6:	61 83       	std	Z+1, r22	; 0x01
    10c8:	41 c0       	rjmp	.+130    	; 0x114c <qtm_key_sensors_process+0x71c>
    10ca:	a0 82       	st	Z, r10
    10cc:	6c 81       	ldd	r22, Y+4	; 0x04
    10ce:	7d 81       	ldd	r23, Y+5	; 0x05
    10d0:	fb 01       	movw	r30, r22
    10d2:	e4 0f       	add	r30, r20
    10d4:	f5 1f       	adc	r31, r21
    10d6:	02 80       	ldd	r0, Z+2	; 0x02
    10d8:	f3 81       	ldd	r31, Z+3	; 0x03
    10da:	e0 2d       	mov	r30, r0
    10dc:	b0 82       	st	Z, r11
    10de:	ee 81       	ldd	r30, Y+6	; 0x06
    10e0:	ff 81       	ldd	r31, Y+7	; 0x07
    10e2:	e2 0f       	add	r30, r18
    10e4:	f3 1f       	adc	r31, r19
    10e6:	d2 80       	ldd	r13, Z+2	; 0x02
    10e8:	dd 20       	and	r13, r13
    10ea:	81 f1       	breq	.+96     	; 0x114c <qtm_key_sensors_process+0x71c>
    10ec:	40 e0       	ldi	r20, 0x00	; 0
    10ee:	50 e0       	ldi	r21, 0x00	; 0
    10f0:	00 e0       	ldi	r16, 0x00	; 0
    10f2:	10 e0       	ldi	r17, 0x00	; 0
    10f4:	ea 81       	ldd	r30, Y+2	; 0x02
    10f6:	fb 81       	ldd	r31, Y+3	; 0x03
    10f8:	60 81       	ld	r22, Z
    10fa:	71 81       	ldd	r23, Z+1	; 0x01
    10fc:	06 17       	cp	r16, r22
    10fe:	17 07       	cpc	r17, r23
    1100:	28 f5       	brcc	.+74     	; 0x114c <qtm_key_sensors_process+0x71c>
    1102:	ee 81       	ldd	r30, Y+6	; 0x06
    1104:	ff 81       	ldd	r31, Y+7	; 0x07
    1106:	e4 0f       	add	r30, r20
    1108:	f5 1f       	adc	r31, r21
    110a:	62 81       	ldd	r22, Z+2	; 0x02
    110c:	d6 12       	cpse	r13, r22
    110e:	19 c0       	rjmp	.+50     	; 0x1142 <qtm_key_sensors_process+0x712>
    1110:	ba 01       	movw	r22, r20
    1112:	66 0f       	add	r22, r22
    1114:	77 1f       	adc	r23, r23
    1116:	ec 81       	ldd	r30, Y+4	; 0x04
    1118:	fd 81       	ldd	r31, Y+5	; 0x05
    111a:	4f 01       	movw	r8, r30
    111c:	86 0e       	add	r8, r22
    111e:	97 1e       	adc	r9, r23
    1120:	f4 01       	movw	r30, r8
    1122:	e2 80       	ldd	r14, Z+2	; 0x02
    1124:	f3 80       	ldd	r15, Z+3	; 0x03
    1126:	f7 01       	movw	r30, r14
    1128:	f0 80       	ld	r15, Z
    112a:	f0 fe       	sbrs	r15, 0
    112c:	0a c0       	rjmp	.+20     	; 0x1142 <qtm_key_sensors_process+0x712>
    112e:	f4 01       	movw	r30, r8
    1130:	a0 82       	st	Z, r10
    1132:	ec 81       	ldd	r30, Y+4	; 0x04
    1134:	fd 81       	ldd	r31, Y+5	; 0x05
    1136:	e6 0f       	add	r30, r22
    1138:	f7 1f       	adc	r31, r23
    113a:	02 80       	ldd	r0, Z+2	; 0x02
    113c:	f3 81       	ldd	r31, Z+3	; 0x03
    113e:	e0 2d       	mov	r30, r0
    1140:	b0 82       	st	Z, r11
    1142:	0f 5f       	subi	r16, 0xFF	; 255
    1144:	1f 4f       	sbci	r17, 0xFF	; 255
    1146:	4d 5f       	subi	r20, 0xFD	; 253
    1148:	5f 4f       	sbci	r21, 0xFF	; 255
    114a:	d4 cf       	rjmp	.-88     	; 0x10f4 <qtm_key_sensors_process+0x6c4>
    114c:	11 96       	adiw	r26, 0x01	; 1
    114e:	2d 5f       	subi	r18, 0xFD	; 253
    1150:	3f 4f       	sbci	r19, 0xFF	; 255
    1152:	34 cf       	rjmp	.-408    	; 0xfbc <qtm_key_sensors_process+0x58c>
    1154:	8b e0       	ldi	r24, 0x0B	; 11
    1156:	df 91       	pop	r29
    1158:	cf 91       	pop	r28
    115a:	1f 91       	pop	r17
    115c:	0f 91       	pop	r16
    115e:	ff 90       	pop	r15
    1160:	ef 90       	pop	r14
    1162:	df 90       	pop	r13
    1164:	cf 90       	pop	r12
    1166:	bf 90       	pop	r11
    1168:	af 90       	pop	r10
    116a:	9f 90       	pop	r9
    116c:	8f 90       	pop	r8
    116e:	7f 90       	pop	r7
    1170:	6f 90       	pop	r6
    1172:	5f 90       	pop	r5
    1174:	4f 90       	pop	r4
    1176:	3f 90       	pop	r3
    1178:	2f 90       	pop	r2
    117a:	08 95       	ret

0000117c <divide>:
    117c:	9c 01       	movw	r18, r24
    117e:	61 15       	cp	r22, r1
    1180:	71 05       	cpc	r23, r1
    1182:	09 f1       	breq	.+66     	; 0x11c6 <divide+0x4a>
    1184:	4f 5f       	subi	r20, 0xFF	; 255
    1186:	37 fd       	sbrc	r19, 7
    1188:	06 c0       	rjmp	.+12     	; 0x1196 <divide+0x1a>
    118a:	44 23       	and	r20, r20
    118c:	21 f0       	breq	.+8      	; 0x1196 <divide+0x1a>
    118e:	41 50       	subi	r20, 0x01	; 1
    1190:	22 0f       	add	r18, r18
    1192:	33 1f       	adc	r19, r19
    1194:	f8 cf       	rjmp	.-16     	; 0x1186 <divide+0xa>
    1196:	77 fd       	sbrc	r23, 7
    1198:	04 c0       	rjmp	.+8      	; 0x11a2 <divide+0x26>
    119a:	4f 5f       	subi	r20, 0xFF	; 255
    119c:	66 0f       	add	r22, r22
    119e:	77 1f       	adc	r23, r23
    11a0:	fa cf       	rjmp	.-12     	; 0x1196 <divide+0x1a>
    11a2:	80 e0       	ldi	r24, 0x00	; 0
    11a4:	90 e0       	ldi	r25, 0x00	; 0
    11a6:	44 23       	and	r20, r20
    11a8:	81 f0       	breq	.+32     	; 0x11ca <divide+0x4e>
    11aa:	97 fd       	sbrc	r25, 7
    11ac:	0c c0       	rjmp	.+24     	; 0x11c6 <divide+0x4a>
    11ae:	88 0f       	add	r24, r24
    11b0:	99 1f       	adc	r25, r25
    11b2:	41 50       	subi	r20, 0x01	; 1
    11b4:	26 17       	cp	r18, r22
    11b6:	37 07       	cpc	r19, r23
    11b8:	18 f0       	brcs	.+6      	; 0x11c0 <divide+0x44>
    11ba:	26 1b       	sub	r18, r22
    11bc:	37 0b       	sbc	r19, r23
    11be:	01 96       	adiw	r24, 0x01	; 1
    11c0:	76 95       	lsr	r23
    11c2:	67 95       	ror	r22
    11c4:	f0 cf       	rjmp	.-32     	; 0x11a6 <divide+0x2a>
    11c6:	8f ef       	ldi	r24, 0xFF	; 255
    11c8:	9f ef       	ldi	r25, 0xFF	; 255
    11ca:	08 95       	ret

000011cc <qtm_init_scroller_module>:
    11cc:	cf 93       	push	r28
    11ce:	df 93       	push	r29
    11d0:	fc 01       	movw	r30, r24
    11d2:	89 2b       	or	r24, r25
    11d4:	b9 f1       	breq	.+110    	; 0x1244 <qtm_init_scroller_module+0x78>
    11d6:	24 81       	ldd	r18, Z+4	; 0x04
    11d8:	35 81       	ldd	r19, Z+5	; 0x05
    11da:	21 15       	cp	r18, r1
    11dc:	31 05       	cpc	r19, r1
    11de:	91 f1       	breq	.+100    	; 0x1244 <qtm_init_scroller_module+0x78>
    11e0:	46 81       	ldd	r20, Z+6	; 0x06
    11e2:	57 81       	ldd	r21, Z+7	; 0x07
    11e4:	41 15       	cp	r20, r1
    11e6:	51 05       	cpc	r21, r1
    11e8:	69 f1       	breq	.+90     	; 0x1244 <qtm_init_scroller_module+0x78>
    11ea:	a0 81       	ld	r26, Z
    11ec:	b1 81       	ldd	r27, Z+1	; 0x01
    11ee:	1c 92       	st	X, r1
    11f0:	90 e0       	ldi	r25, 0x00	; 0
    11f2:	a2 81       	ldd	r26, Z+2	; 0x02
    11f4:	b3 81       	ldd	r27, Z+3	; 0x03
    11f6:	12 96       	adiw	r26, 0x02	; 2
    11f8:	8c 91       	ld	r24, X
    11fa:	98 17       	cp	r25, r24
    11fc:	08 f5       	brcc	.+66     	; 0x1240 <qtm_init_scroller_module+0x74>
    11fe:	d9 01       	movw	r26, r18
    1200:	89 e0       	ldi	r24, 0x09	; 9
    1202:	98 9f       	mul	r25, r24
    1204:	a0 0d       	add	r26, r0
    1206:	b1 1d       	adc	r27, r1
    1208:	11 24       	eor	r1, r1
    120a:	11 96       	adiw	r26, 0x01	; 1
    120c:	1c 92       	st	X, r1
    120e:	11 97       	sbiw	r26, 0x01	; 1
    1210:	ea 01       	movw	r28, r20
    1212:	88 e0       	ldi	r24, 0x08	; 8
    1214:	98 9f       	mul	r25, r24
    1216:	c0 0d       	add	r28, r0
    1218:	d1 1d       	adc	r29, r1
    121a:	11 24       	eor	r1, r1
    121c:	8d 81       	ldd	r24, Y+5	; 0x05
    121e:	12 96       	adiw	r26, 0x02	; 2
    1220:	8c 93       	st	X, r24
    1222:	12 97       	sbiw	r26, 0x02	; 2
    1224:	13 96       	adiw	r26, 0x03	; 3
    1226:	1d 92       	st	X+, r1
    1228:	1c 92       	st	X, r1
    122a:	14 97       	sbiw	r26, 0x04	; 4
    122c:	15 96       	adiw	r26, 0x05	; 5
    122e:	1d 92       	st	X+, r1
    1230:	1c 92       	st	X, r1
    1232:	16 97       	sbiw	r26, 0x06	; 6
    1234:	17 96       	adiw	r26, 0x07	; 7
    1236:	1d 92       	st	X+, r1
    1238:	1c 92       	st	X, r1
    123a:	18 97       	sbiw	r26, 0x08	; 8
    123c:	9f 5f       	subi	r25, 0xFF	; 255
    123e:	d9 cf       	rjmp	.-78     	; 0x11f2 <qtm_init_scroller_module+0x26>
    1240:	80 e0       	ldi	r24, 0x00	; 0
    1242:	01 c0       	rjmp	.+2      	; 0x1246 <qtm_init_scroller_module+0x7a>
    1244:	8b e0       	ldi	r24, 0x0B	; 11
    1246:	df 91       	pop	r29
    1248:	cf 91       	pop	r28
    124a:	08 95       	ret

0000124c <qtm_scroller_process>:
    124c:	2f 92       	push	r2
    124e:	3f 92       	push	r3
    1250:	4f 92       	push	r4
    1252:	5f 92       	push	r5
    1254:	6f 92       	push	r6
    1256:	7f 92       	push	r7
    1258:	8f 92       	push	r8
    125a:	9f 92       	push	r9
    125c:	af 92       	push	r10
    125e:	bf 92       	push	r11
    1260:	cf 92       	push	r12
    1262:	df 92       	push	r13
    1264:	ef 92       	push	r14
    1266:	ff 92       	push	r15
    1268:	0f 93       	push	r16
    126a:	1f 93       	push	r17
    126c:	cf 93       	push	r28
    126e:	df 93       	push	r29
    1270:	cd b7       	in	r28, 0x3d	; 61
    1272:	de b7       	in	r29, 0x3e	; 62
    1274:	61 97       	sbiw	r28, 0x11	; 17
    1276:	cd bf       	out	0x3d, r28	; 61
    1278:	de bf       	out	0x3e, r29	; 62
    127a:	fc 01       	movw	r30, r24
    127c:	00 97       	sbiw	r24, 0x00	; 0
    127e:	09 f4       	brne	.+2      	; 0x1282 <qtm_scroller_process+0x36>
    1280:	dc c2       	rjmp	.+1464   	; 0x183a <qtm_scroller_process+0x5ee>
    1282:	e4 80       	ldd	r14, Z+4	; 0x04
    1284:	f5 80       	ldd	r15, Z+5	; 0x05
    1286:	ea 86       	std	Y+10, r14	; 0x0a
    1288:	fb 86       	std	Y+11, r15	; 0x0b
    128a:	ef 28       	or	r14, r15
    128c:	09 f4       	brne	.+2      	; 0x1290 <qtm_scroller_process+0x44>
    128e:	d5 c2       	rjmp	.+1450   	; 0x183a <qtm_scroller_process+0x5ee>
    1290:	e6 80       	ldd	r14, Z+6	; 0x06
    1292:	f7 80       	ldd	r15, Z+7	; 0x07
    1294:	e8 86       	std	Y+8, r14	; 0x08
    1296:	f9 86       	std	Y+9, r15	; 0x09
    1298:	ef 28       	or	r14, r15
    129a:	09 f4       	brne	.+2      	; 0x129e <qtm_scroller_process+0x52>
    129c:	ce c2       	rjmp	.+1436   	; 0x183a <qtm_scroller_process+0x5ee>
    129e:	a2 81       	ldd	r26, Z+2	; 0x02
    12a0:	b3 81       	ldd	r27, Z+3	; 0x03
    12a2:	4d 90       	ld	r4, X+
    12a4:	5c 90       	ld	r5, X
    12a6:	41 14       	cp	r4, r1
    12a8:	51 04       	cpc	r5, r1
    12aa:	09 f4       	brne	.+2      	; 0x12ae <qtm_scroller_process+0x62>
    12ac:	c6 c2       	rjmp	.+1420   	; 0x183a <qtm_scroller_process+0x5ee>
    12ae:	8e 83       	std	Y+6, r24	; 0x06
    12b0:	9f 83       	std	Y+7, r25	; 0x07
    12b2:	00 e0       	ldi	r16, 0x00	; 0
    12b4:	1a 82       	std	Y+2, r1	; 0x02
    12b6:	91 2c       	mov	r9, r1
    12b8:	16 e0       	ldi	r17, 0x06	; 6
    12ba:	81 2e       	mov	r8, r17
    12bc:	ae 81       	ldd	r26, Y+6	; 0x06
    12be:	bf 81       	ldd	r27, Y+7	; 0x07
    12c0:	12 96       	adiw	r26, 0x02	; 2
    12c2:	ed 91       	ld	r30, X+
    12c4:	fc 91       	ld	r31, X
    12c6:	13 97       	sbiw	r26, 0x03	; 3
    12c8:	82 81       	ldd	r24, Z+2	; 0x02
    12ca:	98 16       	cp	r9, r24
    12cc:	08 f0       	brcs	.+2      	; 0x12d0 <qtm_scroller_process+0x84>
    12ce:	b0 c2       	rjmp	.+1376   	; 0x1830 <qtm_scroller_process+0x5e4>
    12d0:	68 84       	ldd	r6, Y+8	; 0x08
    12d2:	79 84       	ldd	r7, Y+9	; 0x09
    12d4:	28 e0       	ldi	r18, 0x08	; 8
    12d6:	92 9e       	mul	r9, r18
    12d8:	60 0c       	add	r6, r0
    12da:	71 1c       	adc	r7, r1
    12dc:	11 24       	eor	r1, r1
    12de:	d3 01       	movw	r26, r6
    12e0:	11 96       	adiw	r26, 0x01	; 1
    12e2:	4d 91       	ld	r20, X+
    12e4:	5c 91       	ld	r21, X
    12e6:	12 97       	sbiw	r26, 0x02	; 2
    12e8:	13 96       	adiw	r26, 0x03	; 3
    12ea:	ac 90       	ld	r10, X
    12ec:	7a 01       	movw	r14, r20
    12ee:	ea 0c       	add	r14, r10
    12f0:	f1 1c       	adc	r15, r1
    12f2:	ca 01       	movw	r24, r20
    12f4:	60 e0       	ldi	r22, 0x00	; 0
    12f6:	8e 15       	cp	r24, r14
    12f8:	9f 05       	cpc	r25, r15
    12fa:	70 f4       	brcc	.+28     	; 0x1318 <qtm_scroller_process+0xcc>
    12fc:	88 9e       	mul	r8, r24
    12fe:	f0 01       	movw	r30, r0
    1300:	89 9e       	mul	r8, r25
    1302:	f0 0d       	add	r31, r0
    1304:	11 24       	eor	r1, r1
    1306:	e4 0d       	add	r30, r4
    1308:	f5 1d       	adc	r31, r5
    130a:	20 81       	ld	r18, Z
    130c:	25 38       	cpi	r18, 0x85	; 133
    130e:	11 f4       	brne	.+4      	; 0x1314 <qtm_scroller_process+0xc8>
    1310:	c7 01       	movw	r24, r14
    1312:	61 e0       	ldi	r22, 0x01	; 1
    1314:	01 96       	adiw	r24, 0x01	; 1
    1316:	ef cf       	rjmp	.-34     	; 0x12f6 <qtm_scroller_process+0xaa>
    1318:	84 9e       	mul	r8, r20
    131a:	f0 01       	movw	r30, r0
    131c:	85 9e       	mul	r8, r21
    131e:	f0 0d       	add	r31, r0
    1320:	11 24       	eor	r1, r1
    1322:	ec 83       	std	Y+4, r30	; 0x04
    1324:	fd 83       	std	Y+5, r31	; 0x05
    1326:	34 97       	sbiw	r30, 0x04	; 4
    1328:	e4 0d       	add	r30, r4
    132a:	f5 1d       	adc	r31, r5
    132c:	26 e0       	ldi	r18, 0x06	; 6
    132e:	a2 9e       	mul	r10, r18
    1330:	50 01       	movw	r10, r0
    1332:	11 24       	eor	r1, r1
    1334:	1a 01       	movw	r2, r20
    1336:	70 e0       	ldi	r23, 0x00	; 0
    1338:	18 8a       	std	Y+16, r1	; 0x10
    133a:	19 8a       	std	Y+17, r1	; 0x11
    133c:	2e 14       	cp	r2, r14
    133e:	3f 04       	cpc	r3, r15
    1340:	08 f0       	brcs	.+2      	; 0x1344 <qtm_scroller_process+0xf8>
    1342:	4f c0       	rjmp	.+158    	; 0x13e2 <qtm_scroller_process+0x196>
    1344:	86 81       	ldd	r24, Z+6	; 0x06
    1346:	97 81       	ldd	r25, Z+7	; 0x07
    1348:	dc 01       	movw	r26, r24
    134a:	11 96       	adiw	r26, 0x01	; 1
    134c:	2d 91       	ld	r18, X+
    134e:	3c 91       	ld	r19, X
    1350:	12 97       	sbiw	r26, 0x02	; 2
    1352:	80 85       	ldd	r24, Z+8	; 0x08
    1354:	91 85       	ldd	r25, Z+9	; 0x09
    1356:	28 1b       	sub	r18, r24
    1358:	39 0b       	sbc	r19, r25
    135a:	12 16       	cp	r1, r18
    135c:	13 06       	cpc	r1, r19
    135e:	14 f0       	brlt	.+4      	; 0x1364 <qtm_scroller_process+0x118>
    1360:	20 e0       	ldi	r18, 0x00	; 0
    1362:	30 e0       	ldi	r19, 0x00	; 0
    1364:	24 16       	cp	r2, r20
    1366:	35 06       	cpc	r3, r21
    1368:	a9 f4       	brne	.+42     	; 0x1394 <qtm_scroller_process+0x148>
    136a:	d3 01       	movw	r26, r6
    136c:	8c 91       	ld	r24, X
    136e:	81 30       	cpi	r24, 0x01	; 1
    1370:	f9 f4       	brne	.+62     	; 0x13b0 <qtm_scroller_process+0x164>
    1372:	6f 01       	movw	r12, r30
    1374:	ca 0c       	add	r12, r10
    1376:	db 1c       	adc	r13, r11
    1378:	d6 01       	movw	r26, r12
    137a:	8d 91       	ld	r24, X+
    137c:	9c 91       	ld	r25, X
    137e:	dc 01       	movw	r26, r24
    1380:	11 96       	adiw	r26, 0x01	; 1
    1382:	8d 91       	ld	r24, X+
    1384:	9c 91       	ld	r25, X
    1386:	12 97       	sbiw	r26, 0x02	; 2
    1388:	d6 01       	movw	r26, r12
    138a:	12 96       	adiw	r26, 0x02	; 2
    138c:	cd 90       	ld	r12, X+
    138e:	dc 90       	ld	r13, X
    1390:	13 97       	sbiw	r26, 0x03	; 3
    1392:	09 c0       	rjmp	.+18     	; 0x13a6 <qtm_scroller_process+0x15a>
    1394:	80 81       	ld	r24, Z
    1396:	91 81       	ldd	r25, Z+1	; 0x01
    1398:	dc 01       	movw	r26, r24
    139a:	11 96       	adiw	r26, 0x01	; 1
    139c:	8d 91       	ld	r24, X+
    139e:	9c 91       	ld	r25, X
    13a0:	12 97       	sbiw	r26, 0x02	; 2
    13a2:	c2 80       	ldd	r12, Z+2	; 0x02
    13a4:	d3 80       	ldd	r13, Z+3	; 0x03
    13a6:	8c 19       	sub	r24, r12
    13a8:	9d 09       	sbc	r25, r13
    13aa:	18 16       	cp	r1, r24
    13ac:	19 06       	cpc	r1, r25
    13ae:	14 f0       	brlt	.+4      	; 0x13b4 <qtm_scroller_process+0x168>
    13b0:	80 e0       	ldi	r24, 0x00	; 0
    13b2:	90 e0       	ldi	r25, 0x00	; 0
    13b4:	28 0f       	add	r18, r24
    13b6:	39 1f       	adc	r19, r25
    13b8:	d3 01       	movw	r26, r6
    13ba:	16 96       	adiw	r26, 0x06	; 6
    13bc:	8d 91       	ld	r24, X+
    13be:	9c 91       	ld	r25, X
    13c0:	17 97       	sbiw	r26, 0x07	; 7
    13c2:	28 17       	cp	r18, r24
    13c4:	39 07       	cpc	r19, r25
    13c6:	40 f0       	brcs	.+16     	; 0x13d8 <qtm_scroller_process+0x18c>
    13c8:	88 89       	ldd	r24, Y+16	; 0x10
    13ca:	99 89       	ldd	r25, Y+17	; 0x11
    13cc:	82 17       	cp	r24, r18
    13ce:	93 07       	cpc	r25, r19
    13d0:	10 f4       	brcc	.+4      	; 0x13d6 <qtm_scroller_process+0x18a>
    13d2:	28 8b       	std	Y+16, r18	; 0x10
    13d4:	39 8b       	std	Y+17, r19	; 0x11
    13d6:	71 e0       	ldi	r23, 0x01	; 1
    13d8:	9f ef       	ldi	r25, 0xFF	; 255
    13da:	29 1a       	sub	r2, r25
    13dc:	39 0a       	sbc	r3, r25
    13de:	36 96       	adiw	r30, 0x06	; 6
    13e0:	ad cf       	rjmp	.-166    	; 0x133c <qtm_scroller_process+0xf0>
    13e2:	71 11       	cpse	r23, r1
    13e4:	01 c0       	rjmp	.+2      	; 0x13e8 <qtm_scroller_process+0x19c>
    13e6:	60 e0       	ldi	r22, 0x00	; 0
    13e8:	a9 e0       	ldi	r26, 0x09	; 9
    13ea:	9a 9e       	mul	r9, r26
    13ec:	90 01       	movw	r18, r0
    13ee:	11 24       	eor	r1, r1
    13f0:	ea 84       	ldd	r14, Y+10	; 0x0a
    13f2:	fb 84       	ldd	r15, Y+11	; 0x0b
    13f4:	e2 0e       	add	r14, r18
    13f6:	f3 1e       	adc	r15, r19
    13f8:	ee 86       	std	Y+14, r14	; 0x0e
    13fa:	ff 86       	std	Y+15, r15	; 0x0f
    13fc:	d7 01       	movw	r26, r14
    13fe:	8c 91       	ld	r24, X
    1400:	ae 81       	ldd	r26, Y+6	; 0x06
    1402:	bf 81       	ldd	r27, Y+7	; 0x07
    1404:	14 96       	adiw	r26, 0x04	; 4
    1406:	ed 91       	ld	r30, X+
    1408:	fc 91       	ld	r31, X
    140a:	15 97       	sbiw	r26, 0x05	; 5
    140c:	b8 2f       	mov	r27, r24
    140e:	b1 70       	andi	r27, 0x01	; 1
    1410:	bd 87       	std	Y+13, r27	; 0x0d
    1412:	80 ff       	sbrs	r24, 0
    1414:	1e c0       	rjmp	.+60     	; 0x1452 <qtm_scroller_process+0x206>
    1416:	7f 01       	movw	r14, r30
    1418:	e2 0e       	add	r14, r18
    141a:	f3 1e       	adc	r15, r19
    141c:	d7 01       	movw	r26, r14
    141e:	17 96       	adiw	r26, 0x07	; 7
    1420:	cd 90       	ld	r12, X+
    1422:	dc 90       	ld	r13, X
    1424:	18 97       	sbiw	r26, 0x08	; 8
    1426:	c6 01       	movw	r24, r12
    1428:	88 0f       	add	r24, r24
    142a:	99 1f       	adc	r25, r25
    142c:	8c 0d       	add	r24, r12
    142e:	9d 1d       	adc	r25, r13
    1430:	a8 89       	ldd	r26, Y+16	; 0x10
    1432:	b9 89       	ldd	r27, Y+17	; 0x11
    1434:	8a 0f       	add	r24, r26
    1436:	9b 1f       	adc	r25, r27
    1438:	96 95       	lsr	r25
    143a:	87 95       	ror	r24
    143c:	96 95       	lsr	r25
    143e:	87 95       	ror	r24
    1440:	d7 01       	movw	r26, r14
    1442:	17 96       	adiw	r26, 0x07	; 7
    1444:	8d 93       	st	X+, r24
    1446:	9c 93       	st	X, r25
    1448:	18 97       	sbiw	r26, 0x08	; 8
    144a:	77 23       	and	r23, r23
    144c:	61 f0       	breq	.+24     	; 0x1466 <qtm_scroller_process+0x21a>
    144e:	61 e0       	ldi	r22, 0x01	; 1
    1450:	0a c0       	rjmp	.+20     	; 0x1466 <qtm_scroller_process+0x21a>
    1452:	cf 01       	movw	r24, r30
    1454:	82 0f       	add	r24, r18
    1456:	93 1f       	adc	r25, r19
    1458:	e8 88       	ldd	r14, Y+16	; 0x10
    145a:	f9 88       	ldd	r15, Y+17	; 0x11
    145c:	dc 01       	movw	r26, r24
    145e:	17 96       	adiw	r26, 0x07	; 7
    1460:	ed 92       	st	X+, r14
    1462:	fc 92       	st	X, r15
    1464:	18 97       	sbiw	r26, 0x08	; 8
    1466:	d3 01       	movw	r26, r6
    1468:	bc 91       	ld	r27, X
    146a:	b9 83       	std	Y+1, r27	; 0x01
    146c:	b2 30       	cpi	r27, 0x02	; 2
    146e:	08 f0       	brcs	.+2      	; 0x1472 <qtm_scroller_process+0x226>
    1470:	d4 c1       	rjmp	.+936    	; 0x181a <qtm_scroller_process+0x5ce>
    1472:	d3 01       	movw	r26, r6
    1474:	14 96       	adiw	r26, 0x04	; 4
    1476:	1c 91       	ld	r17, X
    1478:	10 3d       	cpi	r17, 0xD0	; 208
    147a:	08 f0       	brcs	.+2      	; 0x147e <qtm_scroller_process+0x232>
    147c:	ce c1       	rjmp	.+924    	; 0x181a <qtm_scroller_process+0x5ce>
    147e:	61 11       	cpse	r22, r1
    1480:	05 c0       	rjmp	.+10     	; 0x148c <qtm_scroller_process+0x240>
    1482:	e2 0f       	add	r30, r18
    1484:	f3 1f       	adc	r31, r19
    1486:	17 82       	std	Z+7, r1	; 0x07
    1488:	10 86       	std	Z+8, r1	; 0x08
    148a:	c8 c1       	rjmp	.+912    	; 0x181c <qtm_scroller_process+0x5d0>
    148c:	f3 01       	movw	r30, r6
    148e:	f3 81       	ldd	r31, Z+3	; 0x03
    1490:	fb 83       	std	Y+3, r31	; 0x03
    1492:	e1 2e       	mov	r14, r17
    1494:	e2 94       	swap	r14
    1496:	9f e0       	ldi	r25, 0x0F	; 15
    1498:	e9 22       	and	r14, r25
    149a:	ec 86       	std	Y+12, r14	; 0x0c
    149c:	ac 80       	ldd	r10, Y+4	; 0x04
    149e:	bd 80       	ldd	r11, Y+5	; 0x05
    14a0:	a4 0c       	add	r10, r4
    14a2:	b5 1c       	adc	r11, r5
    14a4:	f5 01       	movw	r30, r10
    14a6:	ba 01       	movw	r22, r20
    14a8:	21 2c       	mov	r2, r1
    14aa:	31 2c       	mov	r3, r1
    14ac:	20 e0       	ldi	r18, 0x00	; 0
    14ae:	30 e0       	ldi	r19, 0x00	; 0
    14b0:	8b 81       	ldd	r24, Y+3	; 0x03
    14b2:	e8 2e       	mov	r14, r24
    14b4:	f1 2c       	mov	r15, r1
    14b6:	6a 01       	movw	r12, r20
    14b8:	ce 0c       	add	r12, r14
    14ba:	df 1c       	adc	r13, r15
    14bc:	6c 15       	cp	r22, r12
    14be:	7d 05       	cpc	r23, r13
    14c0:	b0 f4       	brcc	.+44     	; 0x14ee <qtm_scroller_process+0x2a2>
    14c2:	a2 81       	ldd	r26, Z+2	; 0x02
    14c4:	b3 81       	ldd	r27, Z+3	; 0x03
    14c6:	11 96       	adiw	r26, 0x01	; 1
    14c8:	8d 91       	ld	r24, X+
    14ca:	9c 91       	ld	r25, X
    14cc:	12 97       	sbiw	r26, 0x02	; 2
    14ce:	a4 81       	ldd	r26, Z+4	; 0x04
    14d0:	b5 81       	ldd	r27, Z+5	; 0x05
    14d2:	8a 1b       	sub	r24, r26
    14d4:	9b 0b       	sbc	r25, r27
    14d6:	18 16       	cp	r1, r24
    14d8:	19 06       	cpc	r1, r25
    14da:	2c f4       	brge	.+10     	; 0x14e6 <qtm_scroller_process+0x29a>
    14dc:	28 16       	cp	r2, r24
    14de:	39 06       	cpc	r3, r25
    14e0:	14 f4       	brge	.+4      	; 0x14e6 <qtm_scroller_process+0x29a>
    14e2:	1c 01       	movw	r2, r24
    14e4:	9b 01       	movw	r18, r22
    14e6:	6f 5f       	subi	r22, 0xFF	; 255
    14e8:	7f 4f       	sbci	r23, 0xFF	; 255
    14ea:	36 96       	adiw	r30, 0x06	; 6
    14ec:	e7 cf       	rjmp	.-50     	; 0x14bc <qtm_scroller_process+0x270>
    14ee:	42 17       	cp	r20, r18
    14f0:	53 07       	cpc	r21, r19
    14f2:	79 f5       	brne	.+94     	; 0x1552 <qtm_scroller_process+0x306>
    14f4:	99 81       	ldd	r25, Y+1	; 0x01
    14f6:	91 30       	cpi	r25, 0x01	; 1
    14f8:	09 f0       	breq	.+2      	; 0x14fc <qtm_scroller_process+0x2b0>
    14fa:	a1 c1       	rjmp	.+834    	; 0x183e <qtm_scroller_process+0x5f2>
    14fc:	8c 9c       	mul	r8, r12
    14fe:	f0 01       	movw	r30, r0
    1500:	8d 9c       	mul	r8, r13
    1502:	f0 0d       	add	r31, r0
    1504:	11 24       	eor	r1, r1
    1506:	36 97       	sbiw	r30, 0x06	; 6
    1508:	e4 0d       	add	r30, r4
    150a:	f5 1d       	adc	r31, r5
    150c:	a2 81       	ldd	r26, Z+2	; 0x02
    150e:	b3 81       	ldd	r27, Z+3	; 0x03
    1510:	11 96       	adiw	r26, 0x01	; 1
    1512:	6d 91       	ld	r22, X+
    1514:	7c 91       	ld	r23, X
    1516:	12 97       	sbiw	r26, 0x02	; 2
    1518:	84 81       	ldd	r24, Z+4	; 0x04
    151a:	95 81       	ldd	r25, Z+5	; 0x05
    151c:	68 1b       	sub	r22, r24
    151e:	79 0b       	sbc	r23, r25
    1520:	ec 81       	ldd	r30, Y+4	; 0x04
    1522:	fd 81       	ldd	r31, Y+5	; 0x05
    1524:	36 96       	adiw	r30, 0x06	; 6
    1526:	e4 0d       	add	r30, r4
    1528:	f5 1d       	adc	r31, r5
    152a:	a2 81       	ldd	r26, Z+2	; 0x02
    152c:	b3 81       	ldd	r27, Z+3	; 0x03
    152e:	11 96       	adiw	r26, 0x01	; 1
    1530:	8d 91       	ld	r24, X+
    1532:	9c 91       	ld	r25, X
    1534:	12 97       	sbiw	r26, 0x02	; 2
    1536:	04 80       	ldd	r0, Z+4	; 0x04
    1538:	f5 81       	ldd	r31, Z+5	; 0x05
    153a:	e0 2d       	mov	r30, r0
    153c:	8e 1b       	sub	r24, r30
    153e:	9f 0b       	sbc	r25, r31
    1540:	97 ff       	sbrs	r25, 7
    1542:	02 c0       	rjmp	.+4      	; 0x1548 <qtm_scroller_process+0x2fc>
    1544:	80 e0       	ldi	r24, 0x00	; 0
    1546:	90 e0       	ldi	r25, 0x00	; 0
    1548:	86 17       	cp	r24, r22
    154a:	97 07       	cpc	r25, r23
    154c:	0c f4       	brge	.+2      	; 0x1550 <qtm_scroller_process+0x304>
    154e:	7b c1       	rjmp	.+758    	; 0x1846 <qtm_scroller_process+0x5fa>
    1550:	12 c0       	rjmp	.+36     	; 0x1576 <qtm_scroller_process+0x32a>
    1552:	82 9e       	mul	r8, r18
    1554:	f0 01       	movw	r30, r0
    1556:	83 9e       	mul	r8, r19
    1558:	f0 0d       	add	r31, r0
    155a:	11 24       	eor	r1, r1
    155c:	36 97       	sbiw	r30, 0x06	; 6
    155e:	e4 0d       	add	r30, r4
    1560:	f5 1d       	adc	r31, r5
    1562:	a2 81       	ldd	r26, Z+2	; 0x02
    1564:	b3 81       	ldd	r27, Z+3	; 0x03
    1566:	11 96       	adiw	r26, 0x01	; 1
    1568:	6d 91       	ld	r22, X+
    156a:	7c 91       	ld	r23, X
    156c:	12 97       	sbiw	r26, 0x02	; 2
    156e:	84 81       	ldd	r24, Z+4	; 0x04
    1570:	95 81       	ldd	r25, Z+5	; 0x05
    1572:	68 1b       	sub	r22, r24
    1574:	79 0b       	sbc	r23, r25
    1576:	90 e0       	ldi	r25, 0x00	; 0
    1578:	77 ff       	sbrs	r23, 7
    157a:	02 c0       	rjmp	.+4      	; 0x1580 <qtm_scroller_process+0x334>
    157c:	60 e0       	ldi	r22, 0x00	; 0
    157e:	70 e0       	ldi	r23, 0x00	; 0
    1580:	a1 e0       	ldi	r26, 0x01	; 1
    1582:	ca 1a       	sub	r12, r26
    1584:	d1 08       	sbc	r13, r1
    1586:	2c 15       	cp	r18, r12
    1588:	3d 05       	cpc	r19, r13
    158a:	81 f4       	brne	.+32     	; 0x15ac <qtm_scroller_process+0x360>
    158c:	b9 81       	ldd	r27, Y+1	; 0x01
    158e:	b1 30       	cpi	r27, 0x01	; 1
    1590:	29 f5       	brne	.+74     	; 0x15dc <qtm_scroller_process+0x390>
    1592:	d5 01       	movw	r26, r10
    1594:	12 96       	adiw	r26, 0x02	; 2
    1596:	ed 91       	ld	r30, X+
    1598:	fc 91       	ld	r31, X
    159a:	13 97       	sbiw	r26, 0x03	; 3
    159c:	c1 80       	ldd	r12, Z+1	; 0x01
    159e:	d2 80       	ldd	r13, Z+2	; 0x02
    15a0:	14 96       	adiw	r26, 0x04	; 4
    15a2:	0d 90       	ld	r0, X+
    15a4:	bc 91       	ld	r27, X
    15a6:	a0 2d       	mov	r26, r0
    15a8:	f6 01       	movw	r30, r12
    15aa:	14 c0       	rjmp	.+40     	; 0x15d4 <qtm_scroller_process+0x388>
    15ac:	f9 01       	movw	r30, r18
    15ae:	31 96       	adiw	r30, 0x01	; 1
    15b0:	8e 9e       	mul	r8, r30
    15b2:	d0 01       	movw	r26, r0
    15b4:	8f 9e       	mul	r8, r31
    15b6:	b0 0d       	add	r27, r0
    15b8:	11 24       	eor	r1, r1
    15ba:	a4 0d       	add	r26, r4
    15bc:	b5 1d       	adc	r27, r5
    15be:	12 96       	adiw	r26, 0x02	; 2
    15c0:	ed 91       	ld	r30, X+
    15c2:	fc 91       	ld	r31, X
    15c4:	13 97       	sbiw	r26, 0x03	; 3
    15c6:	01 80       	ldd	r0, Z+1	; 0x01
    15c8:	f2 81       	ldd	r31, Z+2	; 0x02
    15ca:	e0 2d       	mov	r30, r0
    15cc:	14 96       	adiw	r26, 0x04	; 4
    15ce:	0d 90       	ld	r0, X+
    15d0:	bc 91       	ld	r27, X
    15d2:	a0 2d       	mov	r26, r0
    15d4:	ea 1b       	sub	r30, r26
    15d6:	fb 0b       	sbc	r31, r27
    15d8:	f7 ff       	sbrs	r31, 7
    15da:	02 c0       	rjmp	.+4      	; 0x15e0 <qtm_scroller_process+0x394>
    15dc:	e0 e0       	ldi	r30, 0x00	; 0
    15de:	f0 e0       	ldi	r31, 0x00	; 0
    15e0:	bb 81       	ldd	r27, Y+3	; 0x03
    15e2:	b0 31       	cpi	r27, 0x10	; 16
    15e4:	28 f0       	brcs	.+10     	; 0x15f0 <qtm_scroller_process+0x3a4>
    15e6:	b4 e0       	ldi	r27, 0x04	; 4
    15e8:	ab 2e       	mov	r10, r27
    15ea:	88 e0       	ldi	r24, 0x08	; 8
    15ec:	b8 2e       	mov	r11, r24
    15ee:	03 c0       	rjmp	.+6      	; 0x15f6 <qtm_scroller_process+0x3aa>
    15f0:	a1 2c       	mov	r10, r1
    15f2:	ac e0       	ldi	r26, 0x0C	; 12
    15f4:	ba 2e       	mov	r11, r26
    15f6:	91 30       	cpi	r25, 0x01	; 1
    15f8:	11 f4       	brne	.+4      	; 0x15fe <qtm_scroller_process+0x3b2>
    15fa:	67 01       	movw	r12, r14
    15fc:	03 c0       	rjmp	.+6      	; 0x1604 <qtm_scroller_process+0x3b8>
    15fe:	24 1b       	sub	r18, r20
    1600:	35 0b       	sbc	r19, r21
    1602:	69 01       	movw	r12, r18
    1604:	0b 2c       	mov	r0, r11
    1606:	02 c0       	rjmp	.+4      	; 0x160c <qtm_scroller_process+0x3c0>
    1608:	cc 0c       	add	r12, r12
    160a:	dd 1c       	adc	r13, r13
    160c:	0a 94       	dec	r0
    160e:	e2 f7       	brpl	.-8      	; 0x1608 <qtm_scroller_process+0x3bc>
    1610:	6e 17       	cp	r22, r30
    1612:	7f 07       	cpc	r23, r31
    1614:	a8 f0       	brcs	.+42     	; 0x1640 <qtm_scroller_process+0x3f4>
    1616:	c1 01       	movw	r24, r2
    1618:	8e 1b       	sub	r24, r30
    161a:	9f 0b       	sbc	r25, r31
    161c:	9c 01       	movw	r18, r24
    161e:	2e 1b       	sub	r18, r30
    1620:	3f 0b       	sbc	r19, r31
    1622:	62 0f       	add	r22, r18
    1624:	73 1f       	adc	r23, r19
    1626:	4b 2d       	mov	r20, r11
    1628:	0e 94 be 08 	call	0x117c	; 0x117c <divide>
    162c:	21 e0       	ldi	r18, 0x01	; 1
    162e:	30 e0       	ldi	r19, 0x00	; 0
    1630:	02 c0       	rjmp	.+4      	; 0x1636 <qtm_scroller_process+0x3ea>
    1632:	22 0f       	add	r18, r18
    1634:	33 1f       	adc	r19, r19
    1636:	ba 94       	dec	r11
    1638:	e2 f7       	brpl	.-8      	; 0x1632 <qtm_scroller_process+0x3e6>
    163a:	82 1b       	sub	r24, r18
    163c:	93 0b       	sbc	r25, r19
    163e:	0c c0       	rjmp	.+24     	; 0x1658 <qtm_scroller_process+0x40c>
    1640:	cf 01       	movw	r24, r30
    1642:	86 1b       	sub	r24, r22
    1644:	97 0b       	sbc	r25, r23
    1646:	f1 01       	movw	r30, r2
    1648:	e6 1b       	sub	r30, r22
    164a:	f7 0b       	sbc	r31, r23
    164c:	bf 01       	movw	r22, r30
    164e:	68 0f       	add	r22, r24
    1650:	79 1f       	adc	r23, r25
    1652:	4b 2d       	mov	r20, r11
    1654:	0e 94 be 08 	call	0x117c	; 0x117c <divide>
    1658:	8c 0d       	add	r24, r12
    165a:	9d 1d       	adc	r25, r13
    165c:	fb 81       	ldd	r31, Y+3	; 0x03
    165e:	f3 30       	cpi	r31, 0x03	; 3
    1660:	60 f0       	brcs	.+24     	; 0x167a <qtm_scroller_process+0x42e>
    1662:	29 81       	ldd	r18, Y+1	; 0x01
    1664:	21 30       	cpi	r18, 0x01	; 1
    1666:	19 f4       	brne	.+6      	; 0x166e <qtm_scroller_process+0x422>
    1668:	4a 2d       	mov	r20, r10
    166a:	b7 01       	movw	r22, r14
    166c:	04 c0       	rjmp	.+8      	; 0x1676 <qtm_scroller_process+0x42a>
    166e:	b7 01       	movw	r22, r14
    1670:	61 50       	subi	r22, 0x01	; 1
    1672:	71 09       	sbc	r23, r1
    1674:	4a 2d       	mov	r20, r10
    1676:	0e 94 be 08 	call	0x117c	; 0x117c <divide>
    167a:	81 30       	cpi	r24, 0x01	; 1
    167c:	30 e1       	ldi	r19, 0x10	; 16
    167e:	93 07       	cpc	r25, r19
    1680:	10 f0       	brcs	.+4      	; 0x1686 <qtm_scroller_process+0x43a>
    1682:	80 e0       	ldi	r24, 0x00	; 0
    1684:	90 e1       	ldi	r25, 0x10	; 16
    1686:	e9 80       	ldd	r14, Y+1	; 0x01
    1688:	e1 10       	cpse	r14, r1
    168a:	17 c0       	rjmp	.+46     	; 0x16ba <qtm_scroller_process+0x46e>
    168c:	1f 70       	andi	r17, 0x0F	; 15
    168e:	a9 f0       	breq	.+42     	; 0x16ba <qtm_scroller_process+0x46e>
    1690:	28 e2       	ldi	r18, 0x28	; 40
    1692:	12 9f       	mul	r17, r18
    1694:	a0 01       	movw	r20, r0
    1696:	11 24       	eor	r1, r1
    1698:	84 17       	cp	r24, r20
    169a:	95 07       	cpc	r25, r21
    169c:	18 f0       	brcs	.+6      	; 0x16a4 <qtm_scroller_process+0x458>
    169e:	84 1b       	sub	r24, r20
    16a0:	95 0b       	sbc	r25, r21
    16a2:	02 c0       	rjmp	.+4      	; 0x16a8 <qtm_scroller_process+0x45c>
    16a4:	80 e0       	ldi	r24, 0x00	; 0
    16a6:	90 e0       	ldi	r25, 0x00	; 0
    16a8:	44 0f       	add	r20, r20
    16aa:	55 1f       	adc	r21, r21
    16ac:	60 e0       	ldi	r22, 0x00	; 0
    16ae:	70 e1       	ldi	r23, 0x10	; 16
    16b0:	64 1b       	sub	r22, r20
    16b2:	75 0b       	sbc	r23, r21
    16b4:	4c e0       	ldi	r20, 0x0C	; 12
    16b6:	0e 94 be 08 	call	0x117c	; 0x117c <divide>
    16ba:	2c e0       	ldi	r18, 0x0C	; 12
    16bc:	30 e0       	ldi	r19, 0x00	; 0
    16be:	ec 84       	ldd	r14, Y+12	; 0x0c
    16c0:	2e 19       	sub	r18, r14
    16c2:	31 09       	sbc	r19, r1
    16c4:	61 e0       	ldi	r22, 0x01	; 1
    16c6:	70 e0       	ldi	r23, 0x00	; 0
    16c8:	02 c0       	rjmp	.+4      	; 0x16ce <qtm_scroller_process+0x482>
    16ca:	66 0f       	add	r22, r22
    16cc:	77 1f       	adc	r23, r23
    16ce:	ea 94       	dec	r14
    16d0:	e2 f7       	brpl	.-8      	; 0x16ca <qtm_scroller_process+0x47e>
    16d2:	fb 01       	movw	r30, r22
    16d4:	31 97       	sbiw	r30, 0x01	; 1
    16d6:	02 c0       	rjmp	.+4      	; 0x16dc <qtm_scroller_process+0x490>
    16d8:	96 95       	lsr	r25
    16da:	87 95       	ror	r24
    16dc:	2a 95       	dec	r18
    16de:	e2 f7       	brpl	.-8      	; 0x16d8 <qtm_scroller_process+0x48c>
    16e0:	e8 17       	cp	r30, r24
    16e2:	f9 07       	cpc	r31, r25
    16e4:	08 f4       	brcc	.+2      	; 0x16e8 <qtm_scroller_process+0x49c>
    16e6:	cf 01       	movw	r24, r30
    16e8:	fd 84       	ldd	r15, Y+13	; 0x0d
    16ea:	ff 20       	and	r15, r15
    16ec:	d9 f1       	breq	.+118    	; 0x1764 <qtm_scroller_process+0x518>
    16ee:	ae 85       	ldd	r26, Y+14	; 0x0e
    16f0:	bf 85       	ldd	r27, Y+15	; 0x0f
    16f2:	13 96       	adiw	r26, 0x03	; 3
    16f4:	4d 91       	ld	r20, X+
    16f6:	5c 91       	ld	r21, X
    16f8:	14 97       	sbiw	r26, 0x04	; 4
    16fa:	9c 01       	movw	r18, r24
    16fc:	24 1b       	sub	r18, r20
    16fe:	35 0b       	sbc	r19, r21
    1700:	b9 81       	ldd	r27, Y+1	; 0x01
    1702:	b1 30       	cpi	r27, 0x01	; 1
    1704:	a9 f4       	brne	.+42     	; 0x1730 <qtm_scroller_process+0x4e4>
    1706:	db 01       	movw	r26, r22
    1708:	b6 95       	lsr	r27
    170a:	a7 95       	ror	r26
    170c:	37 ff       	sbrs	r19, 7
    170e:	0a c0       	rjmp	.+20     	; 0x1724 <qtm_scroller_process+0x4d8>
    1710:	b1 95       	neg	r27
    1712:	a1 95       	neg	r26
    1714:	b1 09       	sbc	r27, r1
    1716:	2a 17       	cp	r18, r26
    1718:	3b 07       	cpc	r19, r27
    171a:	0c f0       	brlt	.+2      	; 0x171e <qtm_scroller_process+0x4d2>
    171c:	96 c0       	rjmp	.+300    	; 0x184a <qtm_scroller_process+0x5fe>
    171e:	26 0f       	add	r18, r22
    1720:	37 1f       	adc	r19, r23
    1722:	06 c0       	rjmp	.+12     	; 0x1730 <qtm_scroller_process+0x4e4>
    1724:	a2 17       	cp	r26, r18
    1726:	b3 07       	cpc	r27, r19
    1728:	0c f0       	brlt	.+2      	; 0x172c <qtm_scroller_process+0x4e0>
    172a:	95 c0       	rjmp	.+298    	; 0x1856 <qtm_scroller_process+0x60a>
    172c:	26 1b       	sub	r18, r22
    172e:	37 0b       	sbc	r19, r23
    1730:	21 30       	cpi	r18, 0x01	; 1
    1732:	31 05       	cpc	r19, r1
    1734:	c1 f0       	breq	.+48     	; 0x1766 <qtm_scroller_process+0x51a>
    1736:	2f 3f       	cpi	r18, 0xFF	; 255
    1738:	6f ef       	ldi	r22, 0xFF	; 255
    173a:	36 07       	cpc	r19, r22
    173c:	a1 f0       	breq	.+40     	; 0x1766 <qtm_scroller_process+0x51a>
    173e:	37 ff       	sbrs	r19, 7
    1740:	09 c0       	rjmp	.+18     	; 0x1754 <qtm_scroller_process+0x508>
    1742:	31 95       	neg	r19
    1744:	21 95       	neg	r18
    1746:	31 09       	sbc	r19, r1
    1748:	36 95       	lsr	r19
    174a:	27 95       	ror	r18
    174c:	31 95       	neg	r19
    174e:	21 95       	neg	r18
    1750:	31 09       	sbc	r19, r1
    1752:	02 c0       	rjmp	.+4      	; 0x1758 <qtm_scroller_process+0x50c>
    1754:	36 95       	lsr	r19
    1756:	27 95       	ror	r18
    1758:	24 0f       	add	r18, r20
    175a:	35 1f       	adc	r19, r21
    175c:	af 01       	movw	r20, r30
    175e:	42 23       	and	r20, r18
    1760:	53 23       	and	r21, r19
    1762:	01 c0       	rjmp	.+2      	; 0x1766 <qtm_scroller_process+0x51a>
    1764:	ac 01       	movw	r20, r24
    1766:	ae 85       	ldd	r26, Y+14	; 0x0e
    1768:	bf 85       	ldd	r27, Y+15	; 0x0f
    176a:	13 96       	adiw	r26, 0x03	; 3
    176c:	8d 93       	st	X+, r24
    176e:	9c 93       	st	X, r25
    1770:	14 97       	sbiw	r26, 0x04	; 4
    1772:	f3 01       	movw	r30, r6
    1774:	a5 81       	ldd	r26, Z+5	; 0x05
    1776:	ee 85       	ldd	r30, Y+14	; 0x0e
    1778:	ff 85       	ldd	r31, Y+15	; 0x0f
    177a:	65 81       	ldd	r22, Z+5	; 0x05
    177c:	76 81       	ldd	r23, Z+6	; 0x06
    177e:	f3 01       	movw	r30, r6
    1780:	24 81       	ldd	r18, Z+4	; 0x04
    1782:	ca 01       	movw	r24, r20
    1784:	86 1b       	sub	r24, r22
    1786:	97 0b       	sbc	r25, r23
    1788:	30 81       	ld	r19, Z
    178a:	31 30       	cpi	r19, 0x01	; 1
    178c:	e1 f4       	brne	.+56     	; 0x17c6 <qtm_scroller_process+0x57a>
    178e:	22 95       	swap	r18
    1790:	2f 70       	andi	r18, 0x0F	; 15
    1792:	e1 e0       	ldi	r30, 0x01	; 1
    1794:	f0 e0       	ldi	r31, 0x00	; 0
    1796:	02 c0       	rjmp	.+4      	; 0x179c <qtm_scroller_process+0x550>
    1798:	ee 0f       	add	r30, r30
    179a:	ff 1f       	adc	r31, r31
    179c:	2a 95       	dec	r18
    179e:	e2 f7       	brpl	.-8      	; 0x1798 <qtm_scroller_process+0x54c>
    17a0:	9f 01       	movw	r18, r30
    17a2:	36 95       	lsr	r19
    17a4:	27 95       	ror	r18
    17a6:	97 ff       	sbrs	r25, 7
    17a8:	09 c0       	rjmp	.+18     	; 0x17bc <qtm_scroller_process+0x570>
    17aa:	31 95       	neg	r19
    17ac:	21 95       	neg	r18
    17ae:	31 09       	sbc	r19, r1
    17b0:	82 17       	cp	r24, r18
    17b2:	93 07       	cpc	r25, r19
    17b4:	54 f4       	brge	.+20     	; 0x17ca <qtm_scroller_process+0x57e>
    17b6:	8e 0f       	add	r24, r30
    17b8:	9f 1f       	adc	r25, r31
    17ba:	05 c0       	rjmp	.+10     	; 0x17c6 <qtm_scroller_process+0x57a>
    17bc:	28 17       	cp	r18, r24
    17be:	39 07       	cpc	r19, r25
    17c0:	ac f4       	brge	.+42     	; 0x17ec <qtm_scroller_process+0x5a0>
    17c2:	8e 1b       	sub	r24, r30
    17c4:	9f 0b       	sbc	r25, r31
    17c6:	97 ff       	sbrs	r25, 7
    17c8:	11 c0       	rjmp	.+34     	; 0x17ec <qtm_scroller_process+0x5a0>
    17ca:	91 95       	neg	r25
    17cc:	81 95       	neg	r24
    17ce:	91 09       	sbc	r25, r1
    17d0:	ee 85       	ldd	r30, Y+14	; 0x0e
    17d2:	ff 85       	ldd	r31, Y+15	; 0x0f
    17d4:	22 81       	ldd	r18, Z+2	; 0x02
    17d6:	30 e0       	ldi	r19, 0x00	; 0
    17d8:	28 17       	cp	r18, r24
    17da:	39 07       	cpc	r19, r25
    17dc:	14 f0       	brlt	.+4      	; 0x17e2 <qtm_scroller_process+0x596>
    17de:	80 e0       	ldi	r24, 0x00	; 0
    17e0:	1a c0       	rjmp	.+52     	; 0x1816 <qtm_scroller_process+0x5ca>
    17e2:	ee 85       	ldd	r30, Y+14	; 0x0e
    17e4:	ff 85       	ldd	r31, Y+15	; 0x0f
    17e6:	a1 83       	std	Z+1, r26	; 0x01
    17e8:	12 82       	std	Z+2, r1	; 0x02
    17ea:	0b c0       	rjmp	.+22     	; 0x1802 <qtm_scroller_process+0x5b6>
    17ec:	ee 85       	ldd	r30, Y+14	; 0x0e
    17ee:	ff 85       	ldd	r31, Y+15	; 0x0f
    17f0:	21 81       	ldd	r18, Z+1	; 0x01
    17f2:	30 e0       	ldi	r19, 0x00	; 0
    17f4:	28 17       	cp	r18, r24
    17f6:	39 07       	cpc	r19, r25
    17f8:	94 f7       	brge	.-28     	; 0x17de <qtm_scroller_process+0x592>
    17fa:	ee 85       	ldd	r30, Y+14	; 0x0e
    17fc:	ff 85       	ldd	r31, Y+15	; 0x0f
    17fe:	11 82       	std	Z+1, r1	; 0x01
    1800:	a2 83       	std	Z+2, r26	; 0x02
    1802:	46 17       	cp	r20, r22
    1804:	57 07       	cpc	r21, r23
    1806:	59 f3       	breq	.-42     	; 0x17de <qtm_scroller_process+0x592>
    1808:	ae 85       	ldd	r26, Y+14	; 0x0e
    180a:	bf 85       	ldd	r27, Y+15	; 0x0f
    180c:	15 96       	adiw	r26, 0x05	; 5
    180e:	4d 93       	st	X+, r20
    1810:	5c 93       	st	X, r21
    1812:	16 97       	sbiw	r26, 0x06	; 6
    1814:	82 e0       	ldi	r24, 0x02	; 2
    1816:	81 68       	ori	r24, 0x81	; 129
    1818:	02 c0       	rjmp	.+4      	; 0x181e <qtm_scroller_process+0x5d2>
    181a:	02 e0       	ldi	r16, 0x02	; 2
    181c:	80 e0       	ldi	r24, 0x00	; 0
    181e:	ee 85       	ldd	r30, Y+14	; 0x0e
    1820:	ff 85       	ldd	r31, Y+15	; 0x0f
    1822:	80 83       	st	Z, r24
    1824:	81 78       	andi	r24, 0x81	; 129
    1826:	ea 80       	ldd	r14, Y+2	; 0x02
    1828:	e8 2a       	or	r14, r24
    182a:	ea 82       	std	Y+2, r14	; 0x02
    182c:	93 94       	inc	r9
    182e:	46 cd       	rjmp	.-1396   	; 0x12bc <qtm_scroller_process+0x70>
    1830:	ed 91       	ld	r30, X+
    1832:	fc 91       	ld	r31, X
    1834:	ea 80       	ldd	r14, Y+2	; 0x02
    1836:	e0 82       	st	Z, r14
    1838:	13 c0       	rjmp	.+38     	; 0x1860 <qtm_scroller_process+0x614>
    183a:	0b e0       	ldi	r16, 0x0B	; 11
    183c:	11 c0       	rjmp	.+34     	; 0x1860 <qtm_scroller_process+0x614>
    183e:	60 e0       	ldi	r22, 0x00	; 0
    1840:	70 e0       	ldi	r23, 0x00	; 0
    1842:	90 e0       	ldi	r25, 0x00	; 0
    1844:	9d ce       	rjmp	.-710    	; 0x1580 <qtm_scroller_process+0x334>
    1846:	91 e0       	ldi	r25, 0x01	; 1
    1848:	9b ce       	rjmp	.-714    	; 0x1580 <qtm_scroller_process+0x334>
    184a:	2f 3f       	cpi	r18, 0xFF	; 255
    184c:	6f ef       	ldi	r22, 0xFF	; 255
    184e:	36 07       	cpc	r19, r22
    1850:	09 f0       	breq	.+2      	; 0x1854 <qtm_scroller_process+0x608>
    1852:	77 cf       	rjmp	.-274    	; 0x1742 <qtm_scroller_process+0x4f6>
    1854:	88 cf       	rjmp	.-240    	; 0x1766 <qtm_scroller_process+0x51a>
    1856:	21 30       	cpi	r18, 0x01	; 1
    1858:	31 05       	cpc	r19, r1
    185a:	09 f0       	breq	.+2      	; 0x185e <qtm_scroller_process+0x612>
    185c:	70 cf       	rjmp	.-288    	; 0x173e <qtm_scroller_process+0x4f2>
    185e:	83 cf       	rjmp	.-250    	; 0x1766 <qtm_scroller_process+0x51a>
    1860:	80 2f       	mov	r24, r16
    1862:	61 96       	adiw	r28, 0x11	; 17
    1864:	cd bf       	out	0x3d, r28	; 61
    1866:	de bf       	out	0x3e, r29	; 62
    1868:	df 91       	pop	r29
    186a:	cf 91       	pop	r28
    186c:	1f 91       	pop	r17
    186e:	0f 91       	pop	r16
    1870:	ff 90       	pop	r15
    1872:	ef 90       	pop	r14
    1874:	df 90       	pop	r13
    1876:	cf 90       	pop	r12
    1878:	bf 90       	pop	r11
    187a:	af 90       	pop	r10
    187c:	9f 90       	pop	r9
    187e:	8f 90       	pop	r8
    1880:	7f 90       	pop	r7
    1882:	6f 90       	pop	r6
    1884:	5f 90       	pop	r5
    1886:	4f 90       	pop	r4
    1888:	3f 90       	pop	r3
    188a:	2f 90       	pop	r2
    188c:	08 95       	ret

0000188e <qtm_freq_hop_autotune>:
    188e:	2f 92       	push	r2
    1890:	3f 92       	push	r3
    1892:	4f 92       	push	r4
    1894:	5f 92       	push	r5
    1896:	6f 92       	push	r6
    1898:	7f 92       	push	r7
    189a:	8f 92       	push	r8
    189c:	9f 92       	push	r9
    189e:	af 92       	push	r10
    18a0:	bf 92       	push	r11
    18a2:	cf 92       	push	r12
    18a4:	df 92       	push	r13
    18a6:	ef 92       	push	r14
    18a8:	ff 92       	push	r15
    18aa:	0f 93       	push	r16
    18ac:	1f 93       	push	r17
    18ae:	cf 93       	push	r28
    18b0:	df 93       	push	r29
    18b2:	cd b7       	in	r28, 0x3d	; 61
    18b4:	de b7       	in	r29, 0x3e	; 62
    18b6:	2c 97       	sbiw	r28, 0x0c	; 12
    18b8:	cd bf       	out	0x3d, r28	; 61
    18ba:	de bf       	out	0x3e, r29	; 62
    18bc:	2c 01       	movw	r4, r24
    18be:	00 97       	sbiw	r24, 0x00	; 0
    18c0:	09 f4       	brne	.+2      	; 0x18c4 <qtm_freq_hop_autotune+0x36>
    18c2:	63 c1       	rjmp	.+710    	; 0x1b8a <qtm_freq_hop_autotune+0x2fc>
    18c4:	dc 01       	movw	r26, r24
    18c6:	12 96       	adiw	r26, 0x02	; 2
    18c8:	2d 90       	ld	r2, X+
    18ca:	3c 90       	ld	r3, X
    18cc:	13 97       	sbiw	r26, 0x03	; 3
    18ce:	f1 01       	movw	r30, r2
    18d0:	72 80       	ldd	r7, Z+2	; 0x02
    18d2:	ed 91       	ld	r30, X+
    18d4:	fc 91       	ld	r31, X
    18d6:	61 80       	ldd	r6, Z+1	; 0x01
    18d8:	d1 01       	movw	r26, r2
    18da:	17 96       	adiw	r26, 0x07	; 7
    18dc:	8c 91       	ld	r24, X
    18de:	17 97       	sbiw	r26, 0x07	; 7
    18e0:	e7 2c       	mov	r14, r7
    18e2:	f1 2c       	mov	r15, r1
    18e4:	eb 82       	std	Y+3, r14	; 0x03
    18e6:	fc 82       	std	Y+4, r15	; 0x04
    18e8:	26 2d       	mov	r18, r6
    18ea:	30 e0       	ldi	r19, 0x00	; 0
    18ec:	88 23       	and	r24, r24
    18ee:	09 f4       	brne	.+2      	; 0x18f2 <qtm_freq_hop_autotune+0x64>
    18f0:	a9 c0       	rjmp	.+338    	; 0x1a44 <qtm_freq_hop_autotune+0x1b6>
    18f2:	8d 90       	ld	r8, X+
    18f4:	9c 90       	ld	r9, X
    18f6:	57 01       	movw	r10, r14
    18f8:	aa 0c       	add	r10, r10
    18fa:	bb 1c       	adc	r11, r11
    18fc:	69 01       	movw	r12, r18
    18fe:	cc 0c       	add	r12, r12
    1900:	dd 1c       	adc	r13, r13
    1902:	e1 2c       	mov	r14, r1
    1904:	f1 2c       	mov	r15, r1
    1906:	40 e0       	ldi	r20, 0x00	; 0
    1908:	50 e0       	ldi	r21, 0x00	; 0
    190a:	00 e0       	ldi	r16, 0x00	; 0
    190c:	10 e0       	ldi	r17, 0x00	; 0
    190e:	08 15       	cp	r16, r8
    1910:	19 05       	cpc	r17, r9
    1912:	49 f1       	breq	.+82     	; 0x1966 <qtm_freq_hop_autotune+0xd8>
    1914:	84 81       	ldd	r24, Z+4	; 0x04
    1916:	95 81       	ldd	r25, Z+5	; 0x05
    1918:	8e 0d       	add	r24, r14
    191a:	9f 1d       	adc	r25, r15
    191c:	dc 01       	movw	r26, r24
    191e:	11 96       	adiw	r26, 0x01	; 1
    1920:	6d 91       	ld	r22, X+
    1922:	7c 91       	ld	r23, X
    1924:	12 97       	sbiw	r26, 0x02	; 2
    1926:	82 81       	ldd	r24, Z+2	; 0x02
    1928:	93 81       	ldd	r25, Z+3	; 0x03
    192a:	8c 0d       	add	r24, r12
    192c:	9d 1d       	adc	r25, r13
    192e:	dc 01       	movw	r26, r24
    1930:	8d 91       	ld	r24, X+
    1932:	9c 91       	ld	r25, X
    1934:	86 17       	cp	r24, r22
    1936:	97 07       	cpc	r25, r23
    1938:	28 f4       	brcc	.+10     	; 0x1944 <qtm_freq_hop_autotune+0xb6>
    193a:	db 01       	movw	r26, r22
    193c:	a8 1b       	sub	r26, r24
    193e:	b9 0b       	sbc	r27, r25
    1940:	cd 01       	movw	r24, r26
    1942:	05 c0       	rjmp	.+10     	; 0x194e <qtm_freq_hop_autotune+0xc0>
    1944:	68 17       	cp	r22, r24
    1946:	79 07       	cpc	r23, r25
    1948:	30 f4       	brcc	.+12     	; 0x1956 <qtm_freq_hop_autotune+0xc8>
    194a:	86 1b       	sub	r24, r22
    194c:	97 0b       	sbc	r25, r23
    194e:	48 17       	cp	r20, r24
    1950:	59 07       	cpc	r21, r25
    1952:	08 f4       	brcc	.+2      	; 0x1956 <qtm_freq_hop_autotune+0xc8>
    1954:	ac 01       	movw	r20, r24
    1956:	0f 5f       	subi	r16, 0xFF	; 255
    1958:	1f 4f       	sbci	r17, 0xFF	; 255
    195a:	b5 e0       	ldi	r27, 0x05	; 5
    195c:	eb 0e       	add	r14, r27
    195e:	f1 1c       	adc	r15, r1
    1960:	ca 0c       	add	r12, r10
    1962:	db 1c       	adc	r13, r11
    1964:	d4 cf       	rjmp	.-88     	; 0x190e <qtm_freq_hop_autotune+0x80>
    1966:	d1 01       	movw	r26, r2
    1968:	18 96       	adiw	r26, 0x08	; 8
    196a:	8c 91       	ld	r24, X
    196c:	68 2f       	mov	r22, r24
    196e:	70 e0       	ldi	r23, 0x00	; 0
    1970:	64 17       	cp	r22, r20
    1972:	75 07       	cpc	r23, r21
    1974:	08 f0       	brcs	.+2      	; 0x1978 <qtm_freq_hop_autotune+0xea>
    1976:	57 c0       	rjmp	.+174    	; 0x1a26 <qtm_freq_hop_autotune+0x198>
    1978:	06 80       	ldd	r0, Z+6	; 0x06
    197a:	f7 81       	ldd	r31, Z+7	; 0x07
    197c:	e0 2d       	mov	r30, r0
    197e:	e2 0f       	add	r30, r18
    1980:	f3 1f       	adc	r31, r19
    1982:	80 81       	ld	r24, Z
    1984:	8f 5f       	subi	r24, 0xFF	; 255
    1986:	80 83       	st	Z, r24
    1988:	f2 01       	movw	r30, r4
    198a:	40 81       	ld	r20, Z
    198c:	51 81       	ldd	r21, Z+1	; 0x01
    198e:	a2 81       	ldd	r26, Z+2	; 0x02
    1990:	b3 81       	ldd	r27, Z+3	; 0x03
    1992:	fa 01       	movw	r30, r20
    1994:	81 81       	ldd	r24, Z+1	; 0x01
    1996:	46 81       	ldd	r20, Z+6	; 0x06
    1998:	57 81       	ldd	r21, Z+7	; 0x07
    199a:	fa 01       	movw	r30, r20
    199c:	e8 0f       	add	r30, r24
    199e:	f1 1d       	adc	r31, r1
    19a0:	90 81       	ld	r25, Z
    19a2:	19 96       	adiw	r26, 0x09	; 9
    19a4:	8c 91       	ld	r24, X
    19a6:	19 97       	sbiw	r26, 0x09	; 9
    19a8:	98 13       	cpse	r25, r24
    19aa:	4c c0       	rjmp	.+152    	; 0x1a44 <qtm_freq_hop_autotune+0x1b6>
    19ac:	15 96       	adiw	r26, 0x05	; 5
    19ae:	0d 91       	ld	r16, X+
    19b0:	1c 91       	ld	r17, X
    19b2:	16 97       	sbiw	r26, 0x06	; 6
    19b4:	d8 01       	movw	r26, r16
    19b6:	a2 0f       	add	r26, r18
    19b8:	b3 1f       	adc	r27, r19
    19ba:	8c 91       	ld	r24, X
    19bc:	88 23       	and	r24, r24
    19be:	11 f0       	breq	.+4      	; 0x19c4 <qtm_freq_hop_autotune+0x136>
    19c0:	81 50       	subi	r24, 0x01	; 1
    19c2:	01 c0       	rjmp	.+2      	; 0x19c6 <qtm_freq_hop_autotune+0x138>
    19c4:	8f e0       	ldi	r24, 0x0F	; 15
    19c6:	f8 01       	movw	r30, r16
    19c8:	61 e0       	ldi	r22, 0x01	; 1
    19ca:	70 e0       	ldi	r23, 0x00	; 0
    19cc:	40 e0       	ldi	r20, 0x00	; 0
    19ce:	50 e0       	ldi	r21, 0x00	; 0
    19d0:	eb 80       	ldd	r14, Y+3	; 0x03
    19d2:	fc 80       	ldd	r15, Y+4	; 0x04
    19d4:	4e 15       	cp	r20, r14
    19d6:	5f 05       	cpc	r21, r15
    19d8:	60 f4       	brcc	.+24     	; 0x19f2 <qtm_freq_hop_autotune+0x164>
    19da:	42 17       	cp	r20, r18
    19dc:	53 07       	cpc	r21, r19
    19de:	29 f0       	breq	.+10     	; 0x19ea <qtm_freq_hop_autotune+0x15c>
    19e0:	90 81       	ld	r25, Z
    19e2:	98 13       	cpse	r25, r24
    19e4:	02 c0       	rjmp	.+4      	; 0x19ea <qtm_freq_hop_autotune+0x15c>
    19e6:	60 e0       	ldi	r22, 0x00	; 0
    19e8:	70 e0       	ldi	r23, 0x00	; 0
    19ea:	4f 5f       	subi	r20, 0xFF	; 255
    19ec:	5f 4f       	sbci	r21, 0xFF	; 255
    19ee:	31 96       	adiw	r30, 0x01	; 1
    19f0:	ef cf       	rjmp	.-34     	; 0x19d0 <qtm_freq_hop_autotune+0x142>
    19f2:	67 2b       	or	r22, r23
    19f4:	19 f3       	breq	.-58     	; 0x19bc <qtm_freq_hop_autotune+0x12e>
    19f6:	8c 93       	st	X, r24
    19f8:	80 e0       	ldi	r24, 0x00	; 0
    19fa:	90 e0       	ldi	r25, 0x00	; 0
    19fc:	d2 01       	movw	r26, r4
    19fe:	12 96       	adiw	r26, 0x02	; 2
    1a00:	ed 91       	ld	r30, X+
    1a02:	fc 91       	ld	r31, X
    1a04:	13 97       	sbiw	r26, 0x03	; 3
    1a06:	42 81       	ldd	r20, Z+2	; 0x02
    1a08:	50 e0       	ldi	r21, 0x00	; 0
    1a0a:	84 17       	cp	r24, r20
    1a0c:	95 07       	cpc	r25, r21
    1a0e:	d0 f4       	brcc	.+52     	; 0x1a44 <qtm_freq_hop_autotune+0x1b6>
    1a10:	d2 01       	movw	r26, r4
    1a12:	ed 91       	ld	r30, X+
    1a14:	fc 91       	ld	r31, X
    1a16:	06 80       	ldd	r0, Z+6	; 0x06
    1a18:	f7 81       	ldd	r31, Z+7	; 0x07
    1a1a:	e0 2d       	mov	r30, r0
    1a1c:	e8 0f       	add	r30, r24
    1a1e:	f9 1f       	adc	r31, r25
    1a20:	10 82       	st	Z, r1
    1a22:	01 96       	adiw	r24, 0x01	; 1
    1a24:	eb cf       	rjmp	.-42     	; 0x19fc <qtm_freq_hop_autotune+0x16e>
    1a26:	86 95       	lsr	r24
    1a28:	90 e0       	ldi	r25, 0x00	; 0
    1a2a:	48 17       	cp	r20, r24
    1a2c:	59 07       	cpc	r21, r25
    1a2e:	50 f4       	brcc	.+20     	; 0x1a44 <qtm_freq_hop_autotune+0x1b6>
    1a30:	06 80       	ldd	r0, Z+6	; 0x06
    1a32:	f7 81       	ldd	r31, Z+7	; 0x07
    1a34:	e0 2d       	mov	r30, r0
    1a36:	e2 0f       	add	r30, r18
    1a38:	f3 1f       	adc	r31, r19
    1a3a:	80 81       	ld	r24, Z
    1a3c:	88 23       	and	r24, r24
    1a3e:	11 f0       	breq	.+4      	; 0x1a44 <qtm_freq_hop_autotune+0x1b6>
    1a40:	81 50       	subi	r24, 0x01	; 1
    1a42:	80 83       	st	Z, r24
    1a44:	f2 01       	movw	r30, r4
    1a46:	02 80       	ldd	r0, Z+2	; 0x02
    1a48:	f3 81       	ldd	r31, Z+3	; 0x03
    1a4a:	e0 2d       	mov	r30, r0
    1a4c:	e9 83       	std	Y+1, r30	; 0x01
    1a4e:	fa 83       	std	Y+2, r31	; 0x02
    1a50:	eb 80       	ldd	r14, Y+3	; 0x03
    1a52:	fc 80       	ldd	r15, Y+4	; 0x04
    1a54:	ee 0c       	add	r14, r14
    1a56:	ff 1c       	adc	r15, r15
    1a58:	eb 82       	std	Y+3, r14	; 0x03
    1a5a:	fc 82       	std	Y+4, r15	; 0x04
    1a5c:	b9 01       	movw	r22, r18
    1a5e:	66 0f       	add	r22, r22
    1a60:	77 1f       	adc	r23, r23
    1a62:	6d 83       	std	Y+5, r22	; 0x05
    1a64:	7e 83       	std	Y+6, r23	; 0x06
    1a66:	d7 2c       	mov	r13, r7
    1a68:	d6 94       	lsr	r13
    1a6a:	d3 94       	inc	r13
    1a6c:	40 e0       	ldi	r20, 0x00	; 0
    1a6e:	50 e0       	ldi	r21, 0x00	; 0
    1a70:	20 e0       	ldi	r18, 0x00	; 0
    1a72:	30 e0       	ldi	r19, 0x00	; 0
    1a74:	e1 2c       	mov	r14, r1
    1a76:	f1 2c       	mov	r15, r1
    1a78:	8d 2d       	mov	r24, r13
    1a7a:	90 e0       	ldi	r25, 0x00	; 0
    1a7c:	8f 83       	std	Y+7, r24	; 0x07
    1a7e:	98 87       	std	Y+8, r25	; 0x08
    1a80:	a9 81       	ldd	r26, Y+1	; 0x01
    1a82:	ba 81       	ldd	r27, Y+2	; 0x02
    1a84:	8d 91       	ld	r24, X+
    1a86:	9c 91       	ld	r25, X
    1a88:	e8 16       	cp	r14, r24
    1a8a:	f9 06       	cpc	r15, r25
    1a8c:	08 f0       	brcs	.+2      	; 0x1a90 <qtm_freq_hop_autotune+0x202>
    1a8e:	68 c0       	rjmp	.+208    	; 0x1b60 <qtm_freq_hop_autotune+0x2d2>
    1a90:	d2 01       	movw	r26, r4
    1a92:	ed 91       	ld	r30, X+
    1a94:	fc 91       	ld	r31, X
    1a96:	a4 81       	ldd	r26, Z+4	; 0x04
    1a98:	b5 81       	ldd	r27, Z+5	; 0x05
    1a9a:	bd 01       	movw	r22, r26
    1a9c:	62 0f       	add	r22, r18
    1a9e:	73 1f       	adc	r23, r19
    1aa0:	6b 87       	std	Y+11, r22	; 0x0b
    1aa2:	7c 87       	std	Y+12, r23	; 0x0c
    1aa4:	db 01       	movw	r26, r22
    1aa6:	8c 91       	ld	r24, X
    1aa8:	8c 71       	andi	r24, 0x1C	; 28
    1aaa:	09 f0       	breq	.+2      	; 0x1aae <qtm_freq_hop_autotune+0x220>
    1aac:	4f c0       	rjmp	.+158    	; 0x1b4c <qtm_freq_hop_autotune+0x2be>
    1aae:	11 96       	adiw	r26, 0x01	; 1
    1ab0:	6d 91       	ld	r22, X+
    1ab2:	7c 91       	ld	r23, X
    1ab4:	12 97       	sbiw	r26, 0x02	; 2
    1ab6:	82 81       	ldd	r24, Z+2	; 0x02
    1ab8:	93 81       	ldd	r25, Z+3	; 0x03
    1aba:	84 0f       	add	r24, r20
    1abc:	95 1f       	adc	r25, r21
    1abe:	ed 81       	ldd	r30, Y+5	; 0x05
    1ac0:	fe 81       	ldd	r31, Y+6	; 0x06
    1ac2:	e8 0f       	add	r30, r24
    1ac4:	f9 1f       	adc	r31, r25
    1ac6:	60 83       	st	Z, r22
    1ac8:	71 83       	std	Z+1, r23	; 0x01
    1aca:	a1 2c       	mov	r10, r1
    1acc:	b1 2c       	mov	r11, r1
    1ace:	c1 2c       	mov	r12, r1
    1ad0:	c7 14       	cp	r12, r7
    1ad2:	c0 f5       	brcc	.+112    	; 0x1b44 <qtm_freq_hop_autotune+0x2b6>
    1ad4:	fc 01       	movw	r30, r24
    1ad6:	ec 0d       	add	r30, r12
    1ad8:	f1 1d       	adc	r31, r1
    1ada:	ec 0d       	add	r30, r12
    1adc:	f1 1d       	adc	r31, r1
    1ade:	89 87       	std	Y+9, r24	; 0x09
    1ae0:	9a 87       	std	Y+10, r25	; 0x0a
    1ae2:	99 24       	eor	r9, r9
    1ae4:	93 94       	inc	r9
    1ae6:	81 2c       	mov	r8, r1
    1ae8:	31 2c       	mov	r3, r1
    1aea:	73 14       	cp	r7, r3
    1aec:	c9 f0       	breq	.+50     	; 0x1b20 <qtm_freq_hop_autotune+0x292>
    1aee:	c3 14       	cp	r12, r3
    1af0:	79 f0       	breq	.+30     	; 0x1b10 <qtm_freq_hop_autotune+0x282>
    1af2:	a9 85       	ldd	r26, Y+9	; 0x09
    1af4:	ba 85       	ldd	r27, Y+10	; 0x0a
    1af6:	0d 91       	ld	r16, X+
    1af8:	1c 91       	ld	r17, X
    1afa:	60 81       	ld	r22, Z
    1afc:	71 81       	ldd	r23, Z+1	; 0x01
    1afe:	06 17       	cp	r16, r22
    1b00:	17 07       	cpc	r17, r23
    1b02:	11 f4       	brne	.+4      	; 0x1b08 <qtm_freq_hop_autotune+0x27a>
    1b04:	93 94       	inc	r9
    1b06:	04 c0       	rjmp	.+8      	; 0x1b10 <qtm_freq_hop_autotune+0x282>
    1b08:	06 17       	cp	r16, r22
    1b0a:	17 07       	cpc	r17, r23
    1b0c:	08 f4       	brcc	.+2      	; 0x1b10 <qtm_freq_hop_autotune+0x282>
    1b0e:	83 94       	inc	r8
    1b10:	33 94       	inc	r3
    1b12:	69 85       	ldd	r22, Y+9	; 0x09
    1b14:	7a 85       	ldd	r23, Y+10	; 0x0a
    1b16:	6e 5f       	subi	r22, 0xFE	; 254
    1b18:	7f 4f       	sbci	r23, 0xFF	; 255
    1b1a:	69 87       	std	Y+9, r22	; 0x09
    1b1c:	7a 87       	std	Y+10, r23	; 0x0a
    1b1e:	e5 cf       	rjmp	.-54     	; 0x1aea <qtm_freq_hop_autotune+0x25c>
    1b20:	9d 14       	cp	r9, r13
    1b22:	58 f4       	brcc	.+22     	; 0x1b3a <qtm_freq_hop_autotune+0x2ac>
    1b24:	8d 14       	cp	r8, r13
    1b26:	60 f4       	brcc	.+24     	; 0x1b40 <qtm_freq_hop_autotune+0x2b2>
    1b28:	69 2d       	mov	r22, r9
    1b2a:	70 e0       	ldi	r23, 0x00	; 0
    1b2c:	68 0d       	add	r22, r8
    1b2e:	71 1d       	adc	r23, r1
    1b30:	af 81       	ldd	r26, Y+7	; 0x07
    1b32:	b8 85       	ldd	r27, Y+8	; 0x08
    1b34:	6a 17       	cp	r22, r26
    1b36:	7b 07       	cpc	r23, r27
    1b38:	1c f0       	brlt	.+6      	; 0x1b40 <qtm_freq_hop_autotune+0x2b2>
    1b3a:	a0 80       	ld	r10, Z
    1b3c:	b1 80       	ldd	r11, Z+1	; 0x01
    1b3e:	c7 2c       	mov	r12, r7
    1b40:	c3 94       	inc	r12
    1b42:	c6 cf       	rjmp	.-116    	; 0x1ad0 <qtm_freq_hop_autotune+0x242>
    1b44:	eb 85       	ldd	r30, Y+11	; 0x0b
    1b46:	fc 85       	ldd	r31, Y+12	; 0x0c
    1b48:	a1 82       	std	Z+1, r10	; 0x01
    1b4a:	b2 82       	std	Z+2, r11	; 0x02
    1b4c:	ff ef       	ldi	r31, 0xFF	; 255
    1b4e:	ef 1a       	sub	r14, r31
    1b50:	ff 0a       	sbc	r15, r31
    1b52:	2b 5f       	subi	r18, 0xFB	; 251
    1b54:	3f 4f       	sbci	r19, 0xFF	; 255
    1b56:	6b 81       	ldd	r22, Y+3	; 0x03
    1b58:	7c 81       	ldd	r23, Y+4	; 0x04
    1b5a:	46 0f       	add	r20, r22
    1b5c:	57 1f       	adc	r21, r23
    1b5e:	90 cf       	rjmp	.-224    	; 0x1a80 <qtm_freq_hop_autotune+0x1f2>
    1b60:	63 94       	inc	r6
    1b62:	67 14       	cp	r6, r7
    1b64:	08 f0       	brcs	.+2      	; 0x1b68 <qtm_freq_hop_autotune+0x2da>
    1b66:	61 2c       	mov	r6, r1
    1b68:	e9 81       	ldd	r30, Y+1	; 0x01
    1b6a:	fa 81       	ldd	r31, Y+2	; 0x02
    1b6c:	a3 81       	ldd	r26, Z+3	; 0x03
    1b6e:	b4 81       	ldd	r27, Z+4	; 0x04
    1b70:	85 81       	ldd	r24, Z+5	; 0x05
    1b72:	96 81       	ldd	r25, Z+6	; 0x06
    1b74:	fc 01       	movw	r30, r24
    1b76:	e6 0d       	add	r30, r6
    1b78:	f1 1d       	adc	r31, r1
    1b7a:	80 81       	ld	r24, Z
    1b7c:	8c 93       	st	X, r24
    1b7e:	d2 01       	movw	r26, r4
    1b80:	ed 91       	ld	r30, X+
    1b82:	fc 91       	ld	r31, X
    1b84:	61 82       	std	Z+1, r6	; 0x01
    1b86:	80 e0       	ldi	r24, 0x00	; 0
    1b88:	01 c0       	rjmp	.+2      	; 0x1b8c <qtm_freq_hop_autotune+0x2fe>
    1b8a:	8b e0       	ldi	r24, 0x0B	; 11
    1b8c:	2c 96       	adiw	r28, 0x0c	; 12
    1b8e:	cd bf       	out	0x3d, r28	; 61
    1b90:	de bf       	out	0x3e, r29	; 62
    1b92:	df 91       	pop	r29
    1b94:	cf 91       	pop	r28
    1b96:	1f 91       	pop	r17
    1b98:	0f 91       	pop	r16
    1b9a:	ff 90       	pop	r15
    1b9c:	ef 90       	pop	r14
    1b9e:	df 90       	pop	r13
    1ba0:	cf 90       	pop	r12
    1ba2:	bf 90       	pop	r11
    1ba4:	af 90       	pop	r10
    1ba6:	9f 90       	pop	r9
    1ba8:	8f 90       	pop	r8
    1baa:	7f 90       	pop	r7
    1bac:	6f 90       	pop	r6
    1bae:	5f 90       	pop	r5
    1bb0:	4f 90       	pop	r4
    1bb2:	3f 90       	pop	r3
    1bb4:	2f 90       	pop	r2
    1bb6:	08 95       	ret

00001bb8 <charge_share_test>:
    1bb8:	a0 91 2a 42 	lds	r26, 0x422A	; 0x80422a <qtm_acquisition_control_working_set_ptr>
    1bbc:	b0 91 2b 42 	lds	r27, 0x422B	; 0x80422b <qtm_acquisition_control_working_set_ptr+0x1>
    1bc0:	25 e0       	ldi	r18, 0x05	; 5
    1bc2:	ac 01       	movw	r20, r24
    1bc4:	24 9f       	mul	r18, r20
    1bc6:	c0 01       	movw	r24, r0
    1bc8:	25 9f       	mul	r18, r21
    1bca:	90 0d       	add	r25, r0
    1bcc:	11 24       	eor	r1, r1
    1bce:	14 96       	adiw	r26, 0x04	; 4
    1bd0:	ed 91       	ld	r30, X+
    1bd2:	fc 91       	ld	r31, X
    1bd4:	15 97       	sbiw	r26, 0x05	; 5
    1bd6:	e8 0f       	add	r30, r24
    1bd8:	f9 1f       	adc	r31, r25
    1bda:	81 81       	ldd	r24, Z+1	; 0x01
    1bdc:	92 81       	ldd	r25, Z+2	; 0x02
    1bde:	86 17       	cp	r24, r22
    1be0:	97 07       	cpc	r25, r23
    1be2:	81 f1       	breq	.+96     	; 0x1c44 <charge_share_test+0x8c>
    1be4:	86 17       	cp	r24, r22
    1be6:	97 07       	cpc	r25, r23
    1be8:	18 f4       	brcc	.+6      	; 0x1bf0 <charge_share_test+0x38>
    1bea:	68 1b       	sub	r22, r24
    1bec:	79 0b       	sbc	r23, r25
    1bee:	04 c0       	rjmp	.+8      	; 0x1bf8 <charge_share_test+0x40>
    1bf0:	9c 01       	movw	r18, r24
    1bf2:	26 1b       	sub	r18, r22
    1bf4:	37 0b       	sbc	r19, r23
    1bf6:	b9 01       	movw	r22, r18
    1bf8:	ed 91       	ld	r30, X+
    1bfa:	fc 91       	ld	r31, X
    1bfc:	82 81       	ldd	r24, Z+2	; 0x02
    1bfe:	80 34       	cpi	r24, 0x40	; 64
    1c00:	11 f4       	brne	.+4      	; 0x1c06 <charge_share_test+0x4e>
    1c02:	76 95       	lsr	r23
    1c04:	67 95       	ror	r22
    1c06:	65 38       	cpi	r22, 0x85	; 133
    1c08:	71 05       	cpc	r23, r1
    1c0a:	d0 f4       	brcc	.+52     	; 0x1c40 <charge_share_test+0x88>
    1c0c:	66 30       	cpi	r22, 0x06	; 6
    1c0e:	71 05       	cpc	r23, r1
    1c10:	c8 f0       	brcs	.+50     	; 0x1c44 <charge_share_test+0x8c>
    1c12:	e3 81       	ldd	r30, Z+3	; 0x03
    1c14:	e0 73       	andi	r30, 0x30	; 48
    1c16:	f0 e0       	ldi	r31, 0x00	; 0
    1c18:	83 e0       	ldi	r24, 0x03	; 3
    1c1a:	f6 95       	lsr	r31
    1c1c:	e7 95       	ror	r30
    1c1e:	8a 95       	dec	r24
    1c20:	e1 f7       	brne	.-8      	; 0x1c1a <charge_share_test+0x62>
    1c22:	e7 5f       	subi	r30, 0xF7	; 247
    1c24:	fe 4b       	sbci	r31, 0xBE	; 190
    1c26:	80 81       	ld	r24, Z
    1c28:	91 81       	ldd	r25, Z+1	; 0x01
    1c2a:	68 9f       	mul	r22, r24
    1c2c:	90 01       	movw	r18, r0
    1c2e:	69 9f       	mul	r22, r25
    1c30:	30 0d       	add	r19, r0
    1c32:	78 9f       	mul	r23, r24
    1c34:	30 0d       	add	r19, r0
    1c36:	11 24       	eor	r1, r1
    1c38:	81 e0       	ldi	r24, 0x01	; 1
    1c3a:	23 2b       	or	r18, r19
    1c3c:	21 f4       	brne	.+8      	; 0x1c46 <charge_share_test+0x8e>
    1c3e:	02 c0       	rjmp	.+4      	; 0x1c44 <charge_share_test+0x8c>
    1c40:	81 e0       	ldi	r24, 0x01	; 1
    1c42:	08 95       	ret
    1c44:	80 e0       	ldi	r24, 0x00	; 0
    1c46:	08 95       	ret

00001c48 <select_next_channel_to_measure>:
    1c48:	80 91 66 41 	lds	r24, 0x4166	; 0x804166 <current_measure_channel>
    1c4c:	90 91 67 41 	lds	r25, 0x4167	; 0x804167 <current_measure_channel+0x1>
    1c50:	a0 91 2a 42 	lds	r26, 0x422A	; 0x80422a <qtm_acquisition_control_working_set_ptr>
    1c54:	b0 91 2b 42 	lds	r27, 0x422B	; 0x80422b <qtm_acquisition_control_working_set_ptr+0x1>
    1c58:	ed 91       	ld	r30, X+
    1c5a:	fc 91       	ld	r31, X
    1c5c:	11 97       	sbiw	r26, 0x01	; 1
    1c5e:	40 81       	ld	r20, Z
    1c60:	51 81       	ldd	r21, Z+1	; 0x01
    1c62:	25 e0       	ldi	r18, 0x05	; 5
    1c64:	28 9f       	mul	r18, r24
    1c66:	b0 01       	movw	r22, r0
    1c68:	29 9f       	mul	r18, r25
    1c6a:	70 0d       	add	r23, r0
    1c6c:	11 24       	eor	r1, r1
    1c6e:	20 e0       	ldi	r18, 0x00	; 0
    1c70:	30 e0       	ldi	r19, 0x00	; 0
    1c72:	84 17       	cp	r24, r20
    1c74:	95 07       	cpc	r25, r21
    1c76:	a8 f4       	brcc	.+42     	; 0x1ca2 <select_next_channel_to_measure+0x5a>
    1c78:	14 96       	adiw	r26, 0x04	; 4
    1c7a:	ed 91       	ld	r30, X+
    1c7c:	fc 91       	ld	r31, X
    1c7e:	15 97       	sbiw	r26, 0x05	; 5
    1c80:	e2 0f       	add	r30, r18
    1c82:	f3 1f       	adc	r31, r19
    1c84:	e6 0f       	add	r30, r22
    1c86:	f7 1f       	adc	r31, r23
    1c88:	e0 81       	ld	r30, Z
    1c8a:	2b 5f       	subi	r18, 0xFB	; 251
    1c8c:	3f 4f       	sbci	r19, 0xFF	; 255
    1c8e:	e0 fd       	sbrc	r30, 0
    1c90:	02 c0       	rjmp	.+4      	; 0x1c96 <select_next_channel_to_measure+0x4e>
    1c92:	01 96       	adiw	r24, 0x01	; 1
    1c94:	ee cf       	rjmp	.-36     	; 0x1c72 <select_next_channel_to_measure+0x2a>
    1c96:	80 93 66 41 	sts	0x4166, r24	; 0x804166 <current_measure_channel>
    1c9a:	90 93 67 41 	sts	0x4167, r25	; 0x804167 <current_measure_channel+0x1>
    1c9e:	80 e0       	ldi	r24, 0x00	; 0
    1ca0:	08 95       	ret
    1ca2:	10 92 66 41 	sts	0x4166, r1	; 0x804166 <current_measure_channel>
    1ca6:	10 92 67 41 	sts	0x4167, r1	; 0x804167 <current_measure_channel+0x1>
    1caa:	81 e0       	ldi	r24, 0x01	; 1
    1cac:	08 95       	ret

00001cae <qtm_measure_node>:
    1cae:	af 92       	push	r10
    1cb0:	bf 92       	push	r11
    1cb2:	cf 92       	push	r12
    1cb4:	df 92       	push	r13
    1cb6:	ef 92       	push	r14
    1cb8:	ff 92       	push	r15
    1cba:	0f 93       	push	r16
    1cbc:	1f 93       	push	r17
    1cbe:	cf 93       	push	r28
    1cc0:	df 93       	push	r29
    1cc2:	7c 01       	movw	r14, r24
    1cc4:	e0 91 2a 42 	lds	r30, 0x422A	; 0x80422a <qtm_acquisition_control_working_set_ptr>
    1cc8:	f0 91 2b 42 	lds	r31, 0x422B	; 0x80422b <qtm_acquisition_control_working_set_ptr+0x1>
    1ccc:	84 e1       	ldi	r24, 0x14	; 20
    1cce:	8e 9d       	mul	r24, r14
    1cd0:	e0 01       	movw	r28, r0
    1cd2:	8f 9d       	mul	r24, r15
    1cd4:	d0 0d       	add	r29, r0
    1cd6:	11 24       	eor	r1, r1
    1cd8:	a2 81       	ldd	r26, Z+2	; 0x02
    1cda:	b3 81       	ldd	r27, Z+3	; 0x03
    1cdc:	ac 0f       	add	r26, r28
    1cde:	bd 1f       	adc	r27, r29
    1ce0:	18 96       	adiw	r26, 0x08	; 8
    1ce2:	2c 91       	ld	r18, X
    1ce4:	18 97       	sbiw	r26, 0x08	; 8
    1ce6:	19 96       	adiw	r26, 0x09	; 9
    1ce8:	3c 91       	ld	r19, X
    1cea:	19 97       	sbiw	r26, 0x09	; 9
    1cec:	1a 96       	adiw	r26, 0x0a	; 10
    1cee:	4c 91       	ld	r20, X
    1cf0:	1a 97       	sbiw	r26, 0x0a	; 10
    1cf2:	1b 96       	adiw	r26, 0x0b	; 11
    1cf4:	5c 91       	ld	r21, X
    1cf6:	1b 97       	sbiw	r26, 0x0b	; 11
    1cf8:	1c 96       	adiw	r26, 0x0c	; 12
    1cfa:	6c 91       	ld	r22, X
    1cfc:	1c 97       	sbiw	r26, 0x0c	; 12
    1cfe:	1d 96       	adiw	r26, 0x0d	; 13
    1d00:	7c 91       	ld	r23, X
    1d02:	1d 97       	sbiw	r26, 0x0d	; 13
    1d04:	1e 96       	adiw	r26, 0x0e	; 14
    1d06:	8c 91       	ld	r24, X
    1d08:	1e 97       	sbiw	r26, 0x0e	; 14
    1d0a:	1f 96       	adiw	r26, 0x0f	; 15
    1d0c:	9c 91       	ld	r25, X
    1d0e:	20 93 f0 07 	sts	0x07F0, r18	; 0x8007f0 <__TEXT_REGION_LENGTH__+0x7e07f0>
    1d12:	08 e0       	ldi	r16, 0x08	; 8
    1d14:	0e 94 1e 14 	call	0x283c	; 0x283c <__lshrdi3>
    1d18:	20 93 f1 07 	sts	0x07F1, r18	; 0x8007f1 <__TEXT_REGION_LENGTH__+0x7e07f1>
    1d1c:	0e 94 1e 14 	call	0x283c	; 0x283c <__lshrdi3>
    1d20:	20 93 f2 07 	sts	0x07F2, r18	; 0x8007f2 <__TEXT_REGION_LENGTH__+0x7e07f2>
    1d24:	0e 94 1e 14 	call	0x283c	; 0x283c <__lshrdi3>
    1d28:	20 93 f3 07 	sts	0x07F3, r18	; 0x8007f3 <__TEXT_REGION_LENGTH__+0x7e07f3>
    1d2c:	0e 94 1e 14 	call	0x283c	; 0x283c <__lshrdi3>
    1d30:	20 93 f4 07 	sts	0x07F4, r18	; 0x8007f4 <__TEXT_REGION_LENGTH__+0x7e07f4>
    1d34:	0e 94 1e 14 	call	0x283c	; 0x283c <__lshrdi3>
    1d38:	20 93 f5 07 	sts	0x07F5, r18	; 0x8007f5 <__TEXT_REGION_LENGTH__+0x7e07f5>
    1d3c:	10 92 e0 07 	sts	0x07E0, r1	; 0x8007e0 <__TEXT_REGION_LENGTH__+0x7e07e0>
    1d40:	a0 81       	ld	r26, Z
    1d42:	b1 81       	ldd	r27, Z+1	; 0x01
    1d44:	12 96       	adiw	r26, 0x02	; 2
    1d46:	8c 91       	ld	r24, X
    1d48:	80 38       	cpi	r24, 0x80	; 128
    1d4a:	09 f4       	brne	.+2      	; 0x1d4e <qtm_measure_node+0xa0>
    1d4c:	4f c0       	rjmp	.+158    	; 0x1dec <qtm_measure_node+0x13e>
    1d4e:	a2 81       	ldd	r26, Z+2	; 0x02
    1d50:	b3 81       	ldd	r27, Z+3	; 0x03
    1d52:	ac 0f       	add	r26, r28
    1d54:	bd 1f       	adc	r27, r29
    1d56:	cc 90       	ld	r12, X
    1d58:	11 96       	adiw	r26, 0x01	; 1
    1d5a:	3c 91       	ld	r19, X
    1d5c:	11 97       	sbiw	r26, 0x01	; 1
    1d5e:	12 96       	adiw	r26, 0x02	; 2
    1d60:	4c 91       	ld	r20, X
    1d62:	12 97       	sbiw	r26, 0x02	; 2
    1d64:	13 96       	adiw	r26, 0x03	; 3
    1d66:	5c 91       	ld	r21, X
    1d68:	13 97       	sbiw	r26, 0x03	; 3
    1d6a:	14 96       	adiw	r26, 0x04	; 4
    1d6c:	6c 91       	ld	r22, X
    1d6e:	14 97       	sbiw	r26, 0x04	; 4
    1d70:	15 96       	adiw	r26, 0x05	; 5
    1d72:	7c 91       	ld	r23, X
    1d74:	15 97       	sbiw	r26, 0x05	; 5
    1d76:	16 96       	adiw	r26, 0x06	; 6
    1d78:	8c 91       	ld	r24, X
    1d7a:	16 97       	sbiw	r26, 0x06	; 6
    1d7c:	17 96       	adiw	r26, 0x07	; 7
    1d7e:	9c 91       	ld	r25, X
    1d80:	c0 92 e8 07 	sts	0x07E8, r12	; 0x8007e8 <__TEXT_REGION_LENGTH__+0x7e07e8>
    1d84:	2c 2d       	mov	r18, r12
    1d86:	0e 94 1e 14 	call	0x283c	; 0x283c <__lshrdi3>
    1d8a:	d2 2e       	mov	r13, r18
    1d8c:	20 93 e9 07 	sts	0x07E9, r18	; 0x8007e9 <__TEXT_REGION_LENGTH__+0x7e07e9>
    1d90:	0e 94 1e 14 	call	0x283c	; 0x283c <__lshrdi3>
    1d94:	12 2f       	mov	r17, r18
    1d96:	20 93 ea 07 	sts	0x07EA, r18	; 0x8007ea <__TEXT_REGION_LENGTH__+0x7e07ea>
    1d9a:	0e 94 1e 14 	call	0x283c	; 0x283c <__lshrdi3>
    1d9e:	a2 2e       	mov	r10, r18
    1da0:	20 93 eb 07 	sts	0x07EB, r18	; 0x8007eb <__TEXT_REGION_LENGTH__+0x7e07eb>
    1da4:	0e 94 1e 14 	call	0x283c	; 0x283c <__lshrdi3>
    1da8:	b2 2e       	mov	r11, r18
    1daa:	20 93 ec 07 	sts	0x07EC, r18	; 0x8007ec <__TEXT_REGION_LENGTH__+0x7e07ec>
    1dae:	0e 94 1e 14 	call	0x283c	; 0x283c <__lshrdi3>
    1db2:	20 93 ed 07 	sts	0x07ED, r18	; 0x8007ed <__TEXT_REGION_LENGTH__+0x7e07ed>
    1db6:	80 81       	ld	r24, Z
    1db8:	91 81       	ldd	r25, Z+1	; 0x01
    1dba:	dc 01       	movw	r26, r24
    1dbc:	12 96       	adiw	r26, 0x02	; 2
    1dbe:	8c 91       	ld	r24, X
    1dc0:	81 38       	cpi	r24, 0x81	; 129
    1dc2:	21 f4       	brne	.+8      	; 0x1dcc <qtm_measure_node+0x11e>
    1dc4:	81 e0       	ldi	r24, 0x01	; 1
    1dc6:	80 93 e0 07 	sts	0x07E0, r24	; 0x8007e0 <__TEXT_REGION_LENGTH__+0x7e07e0>
    1dca:	10 c0       	rjmp	.+32     	; 0x1dec <qtm_measure_node+0x13e>
    1dcc:	82 38       	cpi	r24, 0x82	; 130
    1dce:	71 f4       	brne	.+28     	; 0x1dec <qtm_measure_node+0x13e>
    1dd0:	10 92 e0 07 	sts	0x07E0, r1	; 0x8007e0 <__TEXT_REGION_LENGTH__+0x7e07e0>
    1dd4:	c0 92 f8 07 	sts	0x07F8, r12	; 0x8007f8 <__TEXT_REGION_LENGTH__+0x7e07f8>
    1dd8:	d0 92 f9 07 	sts	0x07F9, r13	; 0x8007f9 <__TEXT_REGION_LENGTH__+0x7e07f9>
    1ddc:	10 93 fa 07 	sts	0x07FA, r17	; 0x8007fa <__TEXT_REGION_LENGTH__+0x7e07fa>
    1de0:	a0 92 fb 07 	sts	0x07FB, r10	; 0x8007fb <__TEXT_REGION_LENGTH__+0x7e07fb>
    1de4:	b0 92 fc 07 	sts	0x07FC, r11	; 0x8007fc <__TEXT_REGION_LENGTH__+0x7e07fc>
    1de8:	20 93 fd 07 	sts	0x07FD, r18	; 0x8007fd <__TEXT_REGION_LENGTH__+0x7e07fd>
    1dec:	25 e0       	ldi	r18, 0x05	; 5
    1dee:	2e 9d       	mul	r18, r14
    1df0:	c0 01       	movw	r24, r0
    1df2:	2f 9d       	mul	r18, r15
    1df4:	90 0d       	add	r25, r0
    1df6:	11 24       	eor	r1, r1
    1df8:	a4 81       	ldd	r26, Z+4	; 0x04
    1dfa:	b5 81       	ldd	r27, Z+5	; 0x05
    1dfc:	a8 0f       	add	r26, r24
    1dfe:	b9 1f       	adc	r27, r25
    1e00:	13 96       	adiw	r26, 0x03	; 3
    1e02:	2d 91       	ld	r18, X+
    1e04:	3c 91       	ld	r19, X
    1e06:	14 97       	sbiw	r26, 0x04	; 4
    1e08:	a9 01       	movw	r20, r18
    1e0a:	53 70       	andi	r21, 0x03	; 3
    1e0c:	40 93 e4 07 	sts	0x07E4, r20	; 0x8007e4 <__TEXT_REGION_LENGTH__+0x7e07e4>
    1e10:	50 93 e5 07 	sts	0x07E5, r21	; 0x8007e5 <__TEXT_REGION_LENGTH__+0x7e07e5>
    1e14:	37 fd       	sbrc	r19, 7
    1e16:	03 c0       	rjmp	.+6      	; 0x1e1e <qtm_measure_node+0x170>
    1e18:	10 92 ca 07 	sts	0x07CA, r1	; 0x8007ca <__TEXT_REGION_LENGTH__+0x7e07ca>
    1e1c:	03 c0       	rjmp	.+6      	; 0x1e24 <qtm_measure_node+0x176>
    1e1e:	21 e0       	ldi	r18, 0x01	; 1
    1e20:	20 93 ca 07 	sts	0x07CA, r18	; 0x8007ca <__TEXT_REGION_LENGTH__+0x7e07ca>
    1e24:	a4 81       	ldd	r26, Z+4	; 0x04
    1e26:	b5 81       	ldd	r27, Z+5	; 0x05
    1e28:	a8 0f       	add	r26, r24
    1e2a:	b9 1f       	adc	r27, r25
    1e2c:	2c 91       	ld	r18, X
    1e2e:	21 ff       	sbrs	r18, 1
    1e30:	02 c0       	rjmp	.+4      	; 0x1e36 <qtm_measure_node+0x188>
    1e32:	25 e0       	ldi	r18, 0x05	; 5
    1e34:	2c 93       	st	X, r18
    1e36:	24 81       	ldd	r18, Z+4	; 0x04
    1e38:	35 81       	ldd	r19, Z+5	; 0x05
    1e3a:	d9 01       	movw	r26, r18
    1e3c:	a8 0f       	add	r26, r24
    1e3e:	b9 1f       	adc	r27, r25
    1e40:	8c 91       	ld	r24, X
    1e42:	8c 71       	andi	r24, 0x1C	; 28
    1e44:	69 f4       	brne	.+26     	; 0x1e60 <qtm_measure_node+0x1b2>
    1e46:	a2 81       	ldd	r26, Z+2	; 0x02
    1e48:	b3 81       	ldd	r27, Z+3	; 0x03
    1e4a:	ac 0f       	add	r26, r28
    1e4c:	bd 1f       	adc	r27, r29
    1e4e:	52 96       	adiw	r26, 0x12	; 18
    1e50:	ac 91       	ld	r26, X
    1e52:	a2 95       	swap	r26
    1e54:	af 70       	andi	r26, 0x0F	; 15
    1e56:	b0 e0       	ldi	r27, 0x00	; 0
    1e58:	af 5e       	subi	r26, 0xEF	; 239
    1e5a:	be 4b       	sbci	r27, 0xBE	; 190
    1e5c:	8c 91       	ld	r24, X
    1e5e:	01 c0       	rjmp	.+2      	; 0x1e62 <qtm_measure_node+0x1b4>
    1e60:	8f e1       	ldi	r24, 0x1F	; 31
    1e62:	80 93 e6 07 	sts	0x07E6, r24	; 0x8007e6 <__TEXT_REGION_LENGTH__+0x7e07e6>
    1e66:	a2 81       	ldd	r26, Z+2	; 0x02
    1e68:	b3 81       	ldd	r27, Z+3	; 0x03
    1e6a:	ac 0f       	add	r26, r28
    1e6c:	bd 1f       	adc	r27, r29
    1e6e:	50 96       	adiw	r26, 0x10	; 16
    1e70:	8c 91       	ld	r24, X
    1e72:	8b 37       	cpi	r24, 0x7B	; 123
    1e74:	10 f4       	brcc	.+4      	; 0x1e7a <qtm_measure_node+0x1cc>
    1e76:	8c 5f       	subi	r24, 0xFC	; 252
    1e78:	01 c0       	rjmp	.+2      	; 0x1e7c <qtm_measure_node+0x1ce>
    1e7a:	8f e7       	ldi	r24, 0x7F	; 127
    1e7c:	80 93 c4 07 	sts	0x07C4, r24	; 0x8007c4 <__TEXT_REGION_LENGTH__+0x7e07c4>
    1e80:	a2 81       	ldd	r26, Z+2	; 0x02
    1e82:	b3 81       	ldd	r27, Z+3	; 0x03
    1e84:	ac 0f       	add	r26, r28
    1e86:	bd 1f       	adc	r27, r29
    1e88:	53 96       	adiw	r26, 0x13	; 19
    1e8a:	8c 91       	ld	r24, X
    1e8c:	80 93 c7 07 	sts	0x07C7, r24	; 0x8007c7 <__TEXT_REGION_LENGTH__+0x7e07c7>
    1e90:	a2 81       	ldd	r26, Z+2	; 0x02
    1e92:	b3 81       	ldd	r27, Z+3	; 0x03
    1e94:	ac 0f       	add	r26, r28
    1e96:	bd 1f       	adc	r27, r29
    1e98:	51 96       	adiw	r26, 0x11	; 17
    1e9a:	8c 91       	ld	r24, X
    1e9c:	82 95       	swap	r24
    1e9e:	8f 70       	andi	r24, 0x0F	; 15
    1ea0:	80 93 c9 07 	sts	0x07C9, r24	; 0x8007c9 <__TEXT_REGION_LENGTH__+0x7e07c9>
    1ea4:	82 81       	ldd	r24, Z+2	; 0x02
    1ea6:	93 81       	ldd	r25, Z+3	; 0x03
    1ea8:	c8 0f       	add	r28, r24
    1eaa:	d9 1f       	adc	r29, r25
    1eac:	89 89       	ldd	r24, Y+17	; 0x11
    1eae:	8f 70       	andi	r24, 0x0F	; 15
    1eb0:	80 68       	ori	r24, 0x80	; 128
    1eb2:	80 93 c2 07 	sts	0x07C2, r24	; 0x8007c2 <__TEXT_REGION_LENGTH__+0x7e07c2>
    1eb6:	81 e8       	ldi	r24, 0x81	; 129
    1eb8:	80 93 c0 07 	sts	0x07C0, r24	; 0x8007c0 <__TEXT_REGION_LENGTH__+0x7e07c0>
    1ebc:	81 e0       	ldi	r24, 0x01	; 1
    1ebe:	80 93 d0 07 	sts	0x07D0, r24	; 0x8007d0 <__TEXT_REGION_LENGTH__+0x7e07d0>
    1ec2:	df 91       	pop	r29
    1ec4:	cf 91       	pop	r28
    1ec6:	1f 91       	pop	r17
    1ec8:	0f 91       	pop	r16
    1eca:	ff 90       	pop	r15
    1ecc:	ef 90       	pop	r14
    1ece:	df 90       	pop	r13
    1ed0:	cf 90       	pop	r12
    1ed2:	bf 90       	pop	r11
    1ed4:	af 90       	pop	r10
    1ed6:	08 95       	ret

00001ed8 <qtm_acquisition_process>:
    1ed8:	2f 92       	push	r2
    1eda:	3f 92       	push	r3
    1edc:	4f 92       	push	r4
    1ede:	5f 92       	push	r5
    1ee0:	6f 92       	push	r6
    1ee2:	7f 92       	push	r7
    1ee4:	8f 92       	push	r8
    1ee6:	9f 92       	push	r9
    1ee8:	af 92       	push	r10
    1eea:	bf 92       	push	r11
    1eec:	cf 92       	push	r12
    1eee:	df 92       	push	r13
    1ef0:	ef 92       	push	r14
    1ef2:	ff 92       	push	r15
    1ef4:	0f 93       	push	r16
    1ef6:	1f 93       	push	r17
    1ef8:	cf 93       	push	r28
    1efa:	df 93       	push	r29
    1efc:	cd b7       	in	r28, 0x3d	; 61
    1efe:	de b7       	in	r29, 0x3e	; 62
    1f00:	27 97       	sbiw	r28, 0x07	; 7
    1f02:	cd bf       	out	0x3d, r28	; 61
    1f04:	de bf       	out	0x3e, r29	; 62
    1f06:	80 91 65 41 	lds	r24, 0x4165	; 0x804165 <touch_seq_lib_state>
    1f0a:	88 23       	and	r24, r24
    1f0c:	09 f4       	brne	.+2      	; 0x1f10 <qtm_acquisition_process+0x38>
    1f0e:	46 c2       	rjmp	.+1164   	; 0x239c <qtm_acquisition_process+0x4c4>
    1f10:	00 91 2a 42 	lds	r16, 0x422A	; 0x80422a <qtm_acquisition_control_working_set_ptr>
    1f14:	10 91 2b 42 	lds	r17, 0x422B	; 0x80422b <qtm_acquisition_control_working_set_ptr+0x1>
    1f18:	20 91 2c 42 	lds	r18, 0x422C	; 0x80422c <qtm_raw_data_measurements_ptr>
    1f1c:	30 91 2d 42 	lds	r19, 0x422D	; 0x80422d <qtm_raw_data_measurements_ptr+0x1>
    1f20:	2a 83       	std	Y+2, r18	; 0x02
    1f22:	3b 83       	std	Y+3, r19	; 0x03
    1f24:	c1 2c       	mov	r12, r1
    1f26:	d1 2c       	mov	r13, r1
    1f28:	a1 2c       	mov	r10, r1
    1f2a:	b1 2c       	mov	r11, r1
    1f2c:	21 2c       	mov	r2, r1
    1f2e:	31 2c       	mov	r3, r1
    1f30:	19 82       	std	Y+1, r1	; 0x01
    1f32:	44 24       	eor	r4, r4
    1f34:	4a 94       	dec	r4
    1f36:	55 24       	eor	r5, r5
    1f38:	53 94       	inc	r5
    1f3a:	77 24       	eor	r7, r7
    1f3c:	73 94       	inc	r7
    1f3e:	d8 01       	movw	r26, r16
    1f40:	0d 90       	ld	r0, X+
    1f42:	bc 91       	ld	r27, X
    1f44:	a0 2d       	mov	r26, r0
    1f46:	ae 83       	std	Y+6, r26	; 0x06
    1f48:	bf 83       	std	Y+7, r27	; 0x07
    1f4a:	8d 91       	ld	r24, X+
    1f4c:	9c 91       	ld	r25, X
    1f4e:	28 16       	cp	r2, r24
    1f50:	39 06       	cpc	r3, r25
    1f52:	08 f0       	brcs	.+2      	; 0x1f56 <qtm_acquisition_process+0x7e>
    1f54:	1f c2       	rjmp	.+1086   	; 0x2394 <qtm_acquisition_process+0x4bc>
    1f56:	aa 81       	ldd	r26, Y+2	; 0x02
    1f58:	bb 81       	ldd	r27, Y+3	; 0x03
    1f5a:	4d 91       	ld	r20, X+
    1f5c:	5d 91       	ld	r21, X+
    1f5e:	aa 83       	std	Y+2, r26	; 0x02
    1f60:	bb 83       	std	Y+3, r27	; 0x03
    1f62:	f8 01       	movw	r30, r16
    1f64:	e4 80       	ldd	r14, Z+4	; 0x04
    1f66:	f5 80       	ldd	r15, Z+5	; 0x05
    1f68:	ea 0c       	add	r14, r10
    1f6a:	fb 1c       	adc	r15, r11
    1f6c:	d7 01       	movw	r26, r14
    1f6e:	2c 91       	ld	r18, X
    1f70:	82 2f       	mov	r24, r18
    1f72:	8c 71       	andi	r24, 0x1C	; 28
    1f74:	90 e0       	ldi	r25, 0x00	; 0
    1f76:	96 95       	lsr	r25
    1f78:	87 95       	ror	r24
    1f7a:	96 95       	lsr	r25
    1f7c:	87 95       	ror	r24
    1f7e:	82 30       	cpi	r24, 0x02	; 2
    1f80:	91 05       	cpc	r25, r1
    1f82:	09 f4       	brne	.+2      	; 0x1f86 <qtm_acquisition_process+0xae>
    1f84:	a0 c1       	rjmp	.+832    	; 0x22c6 <qtm_acquisition_process+0x3ee>
    1f86:	28 f4       	brcc	.+10     	; 0x1f92 <qtm_acquisition_process+0xba>
    1f88:	00 97       	sbiw	r24, 0x00	; 0
    1f8a:	59 f0       	breq	.+22     	; 0x1fa2 <qtm_acquisition_process+0xca>
    1f8c:	01 97       	sbiw	r24, 0x01	; 1
    1f8e:	01 f1       	breq	.+64     	; 0x1fd0 <qtm_acquisition_process+0xf8>
    1f90:	f7 c1       	rjmp	.+1006   	; 0x2380 <qtm_acquisition_process+0x4a8>
    1f92:	83 30       	cpi	r24, 0x03	; 3
    1f94:	91 05       	cpc	r25, r1
    1f96:	09 f4       	brne	.+2      	; 0x1f9a <qtm_acquisition_process+0xc2>
    1f98:	59 c1       	rjmp	.+690    	; 0x224c <qtm_acquisition_process+0x374>
    1f9a:	04 97       	sbiw	r24, 0x04	; 4
    1f9c:	09 f4       	brne	.+2      	; 0x1fa0 <qtm_acquisition_process+0xc8>
    1f9e:	e1 c0       	rjmp	.+450    	; 0x2162 <qtm_acquisition_process+0x28a>
    1fa0:	ef c1       	rjmp	.+990    	; 0x2380 <qtm_acquisition_process+0x4a8>
    1fa2:	02 80       	ldd	r0, Z+2	; 0x02
    1fa4:	f3 81       	ldd	r31, Z+3	; 0x03
    1fa6:	e0 2d       	mov	r30, r0
    1fa8:	ec 0d       	add	r30, r12
    1faa:	fd 1d       	adc	r31, r13
    1fac:	92 89       	ldd	r25, Z+18	; 0x12
    1fae:	9f 70       	andi	r25, 0x0F	; 15
    1fb0:	83 89       	ldd	r24, Z+19	; 0x13
    1fb2:	98 17       	cp	r25, r24
    1fb4:	10 f4       	brcc	.+4      	; 0x1fba <qtm_acquisition_process+0xe2>
    1fb6:	89 1b       	sub	r24, r25
    1fb8:	01 c0       	rjmp	.+2      	; 0x1fbc <qtm_acquisition_process+0xe4>
    1fba:	80 e0       	ldi	r24, 0x00	; 0
    1fbc:	9a 01       	movw	r18, r20
    1fbe:	02 c0       	rjmp	.+4      	; 0x1fc4 <qtm_acquisition_process+0xec>
    1fc0:	36 95       	lsr	r19
    1fc2:	27 95       	ror	r18
    1fc4:	8a 95       	dec	r24
    1fc6:	e2 f7       	brpl	.-8      	; 0x1fc0 <qtm_acquisition_process+0xe8>
    1fc8:	f7 01       	movw	r30, r14
    1fca:	21 83       	std	Z+1, r18	; 0x01
    1fcc:	32 83       	std	Z+2, r19	; 0x02
    1fce:	d8 c1       	rjmp	.+944    	; 0x2380 <qtm_acquisition_process+0x4a8>
    1fd0:	82 81       	ldd	r24, Z+2	; 0x02
    1fd2:	93 81       	ldd	r25, Z+3	; 0x03
    1fd4:	fc 01       	movw	r30, r24
    1fd6:	ec 0d       	add	r30, r12
    1fd8:	fd 1d       	adc	r31, r13
    1fda:	4a 01       	movw	r8, r20
    1fdc:	03 88       	ldd	r0, Z+19	; 0x13
    1fde:	02 c0       	rjmp	.+4      	; 0x1fe4 <qtm_acquisition_process+0x10c>
    1fe0:	96 94       	lsr	r9
    1fe2:	87 94       	ror	r8
    1fe4:	0a 94       	dec	r0
    1fe6:	e2 f7       	brpl	.-8      	; 0x1fe0 <qtm_acquisition_process+0x108>
    1fe8:	d7 01       	movw	r26, r14
    1fea:	11 96       	adiw	r26, 0x01	; 1
    1fec:	8d 92       	st	X+, r8
    1fee:	9c 92       	st	X, r9
    1ff0:	12 97       	sbiw	r26, 0x02	; 2
    1ff2:	13 96       	adiw	r26, 0x03	; 3
    1ff4:	8d 91       	ld	r24, X+
    1ff6:	9c 91       	ld	r25, X
    1ff8:	14 97       	sbiw	r26, 0x04	; 4
    1ffa:	69 2f       	mov	r22, r25
    1ffc:	66 1f       	adc	r22, r22
    1ffe:	66 27       	eor	r22, r22
    2000:	66 1f       	adc	r22, r22
    2002:	81 14       	cp	r8, r1
    2004:	b2 e0       	ldi	r27, 0x02	; 2
    2006:	9b 06       	cpc	r9, r27
    2008:	30 f0       	brcs	.+12     	; 0x2016 <qtm_acquisition_process+0x13e>
    200a:	3f ef       	ldi	r19, 0xFF	; 255
    200c:	83 1a       	sub	r8, r19
    200e:	31 e0       	ldi	r19, 0x01	; 1
    2010:	93 0a       	sbc	r9, r19
    2012:	41 e0       	ldi	r20, 0x01	; 1
    2014:	05 c0       	rjmp	.+10     	; 0x2020 <qtm_acquisition_process+0x148>
    2016:	a2 01       	movw	r20, r4
    2018:	48 19       	sub	r20, r8
    201a:	59 09       	sbc	r21, r9
    201c:	4a 01       	movw	r8, r20
    201e:	40 e0       	ldi	r20, 0x00	; 0
    2020:	96 94       	lsr	r9
    2022:	87 94       	ror	r8
    2024:	ae 81       	ldd	r26, Y+6	; 0x06
    2026:	bf 81       	ldd	r27, Y+7	; 0x07
    2028:	12 96       	adiw	r26, 0x02	; 2
    202a:	3c 91       	ld	r19, X
    202c:	30 34       	cpi	r19, 0x40	; 64
    202e:	29 f0       	breq	.+10     	; 0x203a <qtm_acquisition_process+0x162>
    2030:	44 23       	and	r20, r20
    2032:	09 f4       	brne	.+2      	; 0x2036 <qtm_acquisition_process+0x15e>
    2034:	b6 c1       	rjmp	.+876    	; 0x23a2 <qtm_acquisition_process+0x4ca>
    2036:	46 2f       	mov	r20, r22
    2038:	06 c0       	rjmp	.+12     	; 0x2046 <qtm_acquisition_process+0x16e>
    203a:	97 ff       	sbrs	r25, 7
    203c:	04 c0       	rjmp	.+8      	; 0x2046 <qtm_acquisition_process+0x16e>
    203e:	31 e0       	ldi	r19, 0x01	; 1
    2040:	41 11       	cpse	r20, r1
    2042:	30 e0       	ldi	r19, 0x00	; 0
    2044:	43 2f       	mov	r20, r19
    2046:	ba e0       	ldi	r27, 0x0A	; 10
    2048:	8b 16       	cp	r8, r27
    204a:	91 04       	cpc	r9, r1
    204c:	08 f0       	brcs	.+2      	; 0x2050 <qtm_acquisition_process+0x178>
    204e:	3f c0       	rjmp	.+126    	; 0x20ce <qtm_acquisition_process+0x1f6>
    2050:	26 fd       	sbrc	r18, 6
    2052:	3a c0       	rjmp	.+116    	; 0x20c8 <qtm_acquisition_process+0x1f0>
    2054:	27 fd       	sbrc	r18, 7
    2056:	94 c1       	rjmp	.+808    	; 0x2380 <qtm_acquisition_process+0x4a8>
    2058:	ae 81       	ldd	r26, Y+6	; 0x06
    205a:	bf 81       	ldd	r27, Y+7	; 0x07
    205c:	13 96       	adiw	r26, 0x03	; 3
    205e:	8c 91       	ld	r24, X
    2060:	83 70       	andi	r24, 0x03	; 3
    2062:	83 30       	cpi	r24, 0x03	; 3
    2064:	59 f4       	brne	.+22     	; 0x207c <qtm_acquisition_process+0x1a4>
    2066:	bf e7       	ldi	r27, 0x7F	; 127
    2068:	b0 8b       	std	Z+16, r27	; 0x10
    206a:	d8 01       	movw	r26, r16
    206c:	14 96       	adiw	r26, 0x04	; 4
    206e:	ed 91       	ld	r30, X+
    2070:	fc 91       	ld	r31, X
    2072:	15 97       	sbiw	r26, 0x05	; 5
    2074:	ea 0d       	add	r30, r10
    2076:	fb 1d       	adc	r31, r11
    2078:	b1 e1       	ldi	r27, 0x11	; 17
    207a:	0d c0       	rjmp	.+26     	; 0x2096 <qtm_acquisition_process+0x1be>
    207c:	82 30       	cpi	r24, 0x02	; 2
    207e:	69 f4       	brne	.+26     	; 0x209a <qtm_acquisition_process+0x1c2>
    2080:	81 89       	ldd	r24, Z+17	; 0x11
    2082:	80 7f       	andi	r24, 0xF0	; 240
    2084:	81 8b       	std	Z+17, r24	; 0x11
    2086:	d8 01       	movw	r26, r16
    2088:	14 96       	adiw	r26, 0x04	; 4
    208a:	ed 91       	ld	r30, X+
    208c:	fc 91       	ld	r31, X
    208e:	15 97       	sbiw	r26, 0x05	; 5
    2090:	ea 0d       	add	r30, r10
    2092:	fb 1d       	adc	r31, r11
    2094:	b9 e0       	ldi	r27, 0x09	; 9
    2096:	b0 83       	st	Z, r27
    2098:	73 c1       	rjmp	.+742    	; 0x2380 <qtm_acquisition_process+0x4a8>
    209a:	81 30       	cpi	r24, 0x01	; 1
    209c:	a9 f4       	brne	.+42     	; 0x20c8 <qtm_acquisition_process+0x1f0>
    209e:	81 89       	ldd	r24, Z+17	; 0x11
    20a0:	8f 70       	andi	r24, 0x0F	; 15
    20a2:	81 8b       	std	Z+17, r24	; 0x11
    20a4:	d8 01       	movw	r26, r16
    20a6:	12 96       	adiw	r26, 0x02	; 2
    20a8:	ed 91       	ld	r30, X+
    20aa:	fc 91       	ld	r31, X
    20ac:	13 97       	sbiw	r26, 0x03	; 3
    20ae:	ec 0d       	add	r30, r12
    20b0:	fd 1d       	adc	r31, r13
    20b2:	81 89       	ldd	r24, Z+17	; 0x11
    20b4:	80 67       	ori	r24, 0x70	; 112
    20b6:	81 8b       	std	Z+17, r24	; 0x11
    20b8:	14 96       	adiw	r26, 0x04	; 4
    20ba:	ed 91       	ld	r30, X+
    20bc:	fc 91       	ld	r31, X
    20be:	15 97       	sbiw	r26, 0x05	; 5
    20c0:	ea 0d       	add	r30, r10
    20c2:	fb 1d       	adc	r31, r11
    20c4:	bd e0       	ldi	r27, 0x0D	; 13
    20c6:	e7 cf       	rjmp	.-50     	; 0x2096 <qtm_acquisition_process+0x1be>
    20c8:	f7 01       	movw	r30, r14
    20ca:	70 82       	st	Z, r7
    20cc:	59 c1       	rjmp	.+690    	; 0x2380 <qtm_acquisition_process+0x4a8>
    20ce:	9c 01       	movw	r18, r24
    20d0:	33 70       	andi	r19, 0x03	; 3
    20d2:	2f 3f       	cpi	r18, 0xFF	; 255
    20d4:	f3 e0       	ldi	r31, 0x03	; 3
    20d6:	3f 07       	cpc	r19, r31
    20d8:	31 f4       	brne	.+12     	; 0x20e6 <qtm_acquisition_process+0x20e>
    20da:	e1 e8       	ldi	r30, 0x81	; 129
    20dc:	d7 01       	movw	r26, r14
    20de:	ec 93       	st	X, r30
    20e0:	8f ef       	ldi	r24, 0xFF	; 255
    20e2:	93 e0       	ldi	r25, 0x03	; 3
    20e4:	0b c0       	rjmp	.+22     	; 0x20fc <qtm_acquisition_process+0x224>
    20e6:	21 15       	cp	r18, r1
    20e8:	31 05       	cpc	r19, r1
    20ea:	59 f4       	brne	.+22     	; 0x2102 <qtm_acquisition_process+0x22a>
    20ec:	97 ff       	sbrs	r25, 7
    20ee:	25 c0       	rjmp	.+74     	; 0x213a <qtm_acquisition_process+0x262>
    20f0:	e1 e8       	ldi	r30, 0x81	; 129
    20f2:	d7 01       	movw	r26, r14
    20f4:	ec 93       	st	X, r30
    20f6:	80 e0       	ldi	r24, 0x00	; 0
    20f8:	90 e0       	ldi	r25, 0x00	; 0
    20fa:	61 e0       	ldi	r22, 0x01	; 1
    20fc:	fe e0       	ldi	r31, 0x0E	; 14
    20fe:	f9 83       	std	Y+1, r31	; 0x01
    2100:	1f c0       	rjmp	.+62     	; 0x2140 <qtm_acquisition_process+0x268>
    2102:	c9 01       	movw	r24, r18
    2104:	41 11       	cpse	r20, r1
    2106:	0f c0       	rjmp	.+30     	; 0x2126 <qtm_acquisition_process+0x24e>
    2108:	01 96       	adiw	r24, 0x01	; 1
    210a:	21 e0       	ldi	r18, 0x01	; 1
    210c:	82 1a       	sub	r8, r18
    210e:	91 08       	sbc	r9, r1
    2110:	31 e0       	ldi	r19, 0x01	; 1
    2112:	83 16       	cp	r8, r19
    2114:	91 04       	cpc	r9, r1
    2116:	a1 f0       	breq	.+40     	; 0x2140 <qtm_acquisition_process+0x268>
    2118:	8f 3f       	cpi	r24, 0xFF	; 255
    211a:	43 e0       	ldi	r20, 0x03	; 3
    211c:	94 07       	cpc	r25, r20
    211e:	a1 f7       	brne	.-24     	; 0x2108 <qtm_acquisition_process+0x230>
    2120:	0f c0       	rjmp	.+30     	; 0x2140 <qtm_acquisition_process+0x268>
    2122:	00 97       	sbiw	r24, 0x00	; 0
    2124:	69 f0       	breq	.+26     	; 0x2140 <qtm_acquisition_process+0x268>
    2126:	01 97       	sbiw	r24, 0x01	; 1
    2128:	ac 01       	movw	r20, r24
    212a:	42 1b       	sub	r20, r18
    212c:	53 0b       	sbc	r21, r19
    212e:	48 0d       	add	r20, r8
    2130:	59 1d       	adc	r21, r9
    2132:	41 30       	cpi	r20, 0x01	; 1
    2134:	51 05       	cpc	r21, r1
    2136:	a9 f7       	brne	.-22     	; 0x2122 <qtm_acquisition_process+0x24a>
    2138:	03 c0       	rjmp	.+6      	; 0x2140 <qtm_acquisition_process+0x268>
    213a:	80 ef       	ldi	r24, 0xF0	; 240
    213c:	90 e0       	ldi	r25, 0x00	; 0
    213e:	61 e0       	ldi	r22, 0x01	; 1
    2140:	d8 01       	movw	r26, r16
    2142:	14 96       	adiw	r26, 0x04	; 4
    2144:	ed 91       	ld	r30, X+
    2146:	fc 91       	ld	r31, X
    2148:	15 97       	sbiw	r26, 0x05	; 5
    214a:	ea 0d       	add	r30, r10
    214c:	fb 1d       	adc	r31, r11
    214e:	70 e0       	ldi	r23, 0x00	; 0
    2150:	77 27       	eor	r23, r23
    2152:	66 95       	lsr	r22
    2154:	77 95       	ror	r23
    2156:	66 27       	eor	r22, r22
    2158:	86 2b       	or	r24, r22
    215a:	97 2b       	or	r25, r23
    215c:	83 83       	std	Z+3, r24	; 0x03
    215e:	94 83       	std	Z+4, r25	; 0x04
    2160:	0f c1       	rjmp	.+542    	; 0x2380 <qtm_acquisition_process+0x4a8>
    2162:	f8 01       	movw	r30, r16
    2164:	82 80       	ldd	r8, Z+2	; 0x02
    2166:	93 80       	ldd	r9, Z+3	; 0x03
    2168:	8c 0c       	add	r8, r12
    216a:	9d 1c       	adc	r9, r13
    216c:	fa 01       	movw	r30, r20
    216e:	d4 01       	movw	r26, r8
    2170:	53 96       	adiw	r26, 0x13	; 19
    2172:	0c 90       	ld	r0, X
    2174:	53 97       	sbiw	r26, 0x13	; 19
    2176:	02 c0       	rjmp	.+4      	; 0x217c <qtm_acquisition_process+0x2a4>
    2178:	f6 95       	lsr	r31
    217a:	e7 95       	ror	r30
    217c:	0a 94       	dec	r0
    217e:	e2 f7       	brpl	.-8      	; 0x2178 <qtm_acquisition_process+0x2a0>
    2180:	ec 83       	std	Y+4, r30	; 0x04
    2182:	fd 83       	std	Y+5, r31	; 0x05
    2184:	50 96       	adiw	r26, 0x10	; 16
    2186:	6c 90       	ld	r6, X
    2188:	ff e7       	ldi	r31, 0x7F	; 127
    218a:	6f 12       	cpse	r6, r31
    218c:	0f c0       	rjmp	.+30     	; 0x21ac <qtm_acquisition_process+0x2d4>
    218e:	ec 81       	ldd	r30, Y+4	; 0x04
    2190:	fd 81       	ldd	r31, Y+5	; 0x05
    2192:	d7 01       	movw	r26, r14
    2194:	11 96       	adiw	r26, 0x01	; 1
    2196:	ed 93       	st	X+, r30
    2198:	fc 93       	st	X, r31
    219a:	12 97       	sbiw	r26, 0x02	; 2
    219c:	d4 01       	movw	r26, r8
    219e:	50 96       	adiw	r26, 0x10	; 16
    21a0:	8c 91       	ld	r24, X
    21a2:	50 97       	sbiw	r26, 0x10	; 16
    21a4:	8f 7b       	andi	r24, 0xBF	; 191
    21a6:	50 96       	adiw	r26, 0x10	; 16
    21a8:	8c 93       	st	X, r24
    21aa:	42 c0       	rjmp	.+132    	; 0x2230 <qtm_acquisition_process+0x358>
    21ac:	f1 2c       	mov	r15, r1
    21ae:	26 2d       	mov	r18, r6
    21b0:	30 e0       	ldi	r19, 0x00	; 0
    21b2:	c9 01       	movw	r24, r18
    21b4:	0f 2c       	mov	r0, r15
    21b6:	02 c0       	rjmp	.+4      	; 0x21bc <qtm_acquisition_process+0x2e4>
    21b8:	96 95       	lsr	r25
    21ba:	87 95       	ror	r24
    21bc:	0a 94       	dec	r0
    21be:	e2 f7       	brpl	.-8      	; 0x21b8 <qtm_acquisition_process+0x2e0>
    21c0:	80 ff       	sbrs	r24, 0
    21c2:	03 c0       	rjmp	.+6      	; 0x21ca <qtm_acquisition_process+0x2f2>
    21c4:	8f 2d       	mov	r24, r15
    21c6:	f1 2c       	mov	r15, r1
    21c8:	01 c0       	rjmp	.+2      	; 0x21cc <qtm_acquisition_process+0x2f4>
    21ca:	87 e0       	ldi	r24, 0x07	; 7
    21cc:	8f 5f       	subi	r24, 0xFF	; 255
    21ce:	87 30       	cpi	r24, 0x07	; 7
    21d0:	10 f4       	brcc	.+4      	; 0x21d6 <qtm_acquisition_process+0x2fe>
    21d2:	f8 2e       	mov	r15, r24
    21d4:	ee cf       	rjmp	.-36     	; 0x21b2 <qtm_acquisition_process+0x2da>
    21d6:	6c 81       	ldd	r22, Y+4	; 0x04
    21d8:	7d 81       	ldd	r23, Y+5	; 0x05
    21da:	c1 01       	movw	r24, r2
    21dc:	0e 94 dc 0d 	call	0x1bb8	; 0x1bb8 <charge_share_test>
    21e0:	88 23       	and	r24, r24
    21e2:	51 f0       	breq	.+20     	; 0x21f8 <qtm_acquisition_process+0x320>
    21e4:	81 e0       	ldi	r24, 0x01	; 1
    21e6:	90 e0       	ldi	r25, 0x00	; 0
    21e8:	0f 2c       	mov	r0, r15
    21ea:	01 c0       	rjmp	.+2      	; 0x21ee <qtm_acquisition_process+0x316>
    21ec:	88 0f       	add	r24, r24
    21ee:	0a 94       	dec	r0
    21f0:	ea f7       	brpl	.-6      	; 0x21ec <qtm_acquisition_process+0x314>
    21f2:	86 29       	or	r24, r6
    21f4:	f4 01       	movw	r30, r8
    21f6:	80 8b       	std	Z+16, r24	; 0x10
    21f8:	d8 01       	movw	r26, r16
    21fa:	ff 20       	and	r15, r15
    21fc:	91 f0       	breq	.+36     	; 0x2222 <qtm_acquisition_process+0x34a>
    21fe:	12 96       	adiw	r26, 0x02	; 2
    2200:	ed 91       	ld	r30, X+
    2202:	fc 91       	ld	r31, X
    2204:	13 97       	sbiw	r26, 0x03	; 3
    2206:	ec 0d       	add	r30, r12
    2208:	fd 1d       	adc	r31, r13
    220a:	fa 94       	dec	r15
    220c:	81 e0       	ldi	r24, 0x01	; 1
    220e:	90 e0       	ldi	r25, 0x00	; 0
    2210:	01 c0       	rjmp	.+2      	; 0x2214 <qtm_acquisition_process+0x33c>
    2212:	88 0f       	add	r24, r24
    2214:	fa 94       	dec	r15
    2216:	ea f7       	brpl	.-6      	; 0x2212 <qtm_acquisition_process+0x33a>
    2218:	80 95       	com	r24
    221a:	90 89       	ldd	r25, Z+16	; 0x10
    221c:	89 23       	and	r24, r25
    221e:	80 8b       	std	Z+16, r24	; 0x10
    2220:	07 c0       	rjmp	.+14     	; 0x2230 <qtm_acquisition_process+0x358>
    2222:	14 96       	adiw	r26, 0x04	; 4
    2224:	ed 91       	ld	r30, X+
    2226:	fc 91       	ld	r31, X
    2228:	15 97       	sbiw	r26, 0x05	; 5
    222a:	ea 0d       	add	r30, r10
    222c:	fb 1d       	adc	r31, r11
    222e:	70 82       	st	Z, r7
    2230:	d8 01       	movw	r26, r16
    2232:	14 96       	adiw	r26, 0x04	; 4
    2234:	ed 91       	ld	r30, X+
    2236:	fc 91       	ld	r31, X
    2238:	15 97       	sbiw	r26, 0x05	; 5
    223a:	ea 0d       	add	r30, r10
    223c:	fb 1d       	adc	r31, r11
    223e:	80 81       	ld	r24, Z
    2240:	81 30       	cpi	r24, 0x01	; 1
    2242:	09 f0       	breq	.+2      	; 0x2246 <qtm_acquisition_process+0x36e>
    2244:	9d c0       	rjmp	.+314    	; 0x2380 <qtm_acquisition_process+0x4a8>
    2246:	2c 81       	ldd	r18, Y+4	; 0x04
    2248:	3d 81       	ldd	r19, Y+5	; 0x05
    224a:	83 c0       	rjmp	.+262    	; 0x2352 <qtm_acquisition_process+0x47a>
    224c:	02 80       	ldd	r0, Z+2	; 0x02
    224e:	f3 81       	ldd	r31, Z+3	; 0x03
    2250:	e0 2d       	mov	r30, r0
    2252:	ec 0d       	add	r30, r12
    2254:	fd 1d       	adc	r31, r13
    2256:	9a 01       	movw	r18, r20
    2258:	03 88       	ldd	r0, Z+19	; 0x13
    225a:	02 c0       	rjmp	.+4      	; 0x2260 <qtm_acquisition_process+0x388>
    225c:	36 95       	lsr	r19
    225e:	27 95       	ror	r18
    2260:	0a 94       	dec	r0
    2262:	e2 f7       	brpl	.-8      	; 0x225c <qtm_acquisition_process+0x384>
    2264:	2c 83       	std	Y+4, r18	; 0x04
    2266:	3d 83       	std	Y+5, r19	; 0x05
    2268:	91 88       	ldd	r9, Z+17	; 0x11
    226a:	92 94       	swap	r9
    226c:	2f e0       	ldi	r18, 0x0F	; 15
    226e:	92 22       	and	r9, r18
    2270:	37 e0       	ldi	r19, 0x07	; 7
    2272:	93 16       	cp	r9, r19
    2274:	91 f0       	breq	.+36     	; 0x229a <qtm_acquisition_process+0x3c2>
    2276:	6c 81       	ldd	r22, Y+4	; 0x04
    2278:	7d 81       	ldd	r23, Y+5	; 0x05
    227a:	c1 01       	movw	r24, r2
    227c:	0e 94 dc 0d 	call	0x1bb8	; 0x1bb8 <charge_share_test>
    2280:	81 11       	cpse	r24, r1
    2282:	04 c0       	rjmp	.+8      	; 0x228c <qtm_acquisition_process+0x3b4>
    2284:	93 94       	inc	r9
    2286:	d7 01       	movw	r26, r14
    2288:	7c 92       	st	X, r7
    228a:	09 c0       	rjmp	.+18     	; 0x229e <qtm_acquisition_process+0x3c6>
    228c:	91 10       	cpse	r9, r1
    228e:	03 c0       	rjmp	.+6      	; 0x2296 <qtm_acquisition_process+0x3be>
    2290:	f7 01       	movw	r30, r14
    2292:	70 82       	st	Z, r7
    2294:	04 c0       	rjmp	.+8      	; 0x229e <qtm_acquisition_process+0x3c6>
    2296:	9a 94       	dec	r9
    2298:	02 c0       	rjmp	.+4      	; 0x229e <qtm_acquisition_process+0x3c6>
    229a:	96 e0       	ldi	r25, 0x06	; 6
    229c:	99 2e       	mov	r9, r25
    229e:	d8 01       	movw	r26, r16
    22a0:	12 96       	adiw	r26, 0x02	; 2
    22a2:	ed 91       	ld	r30, X+
    22a4:	fc 91       	ld	r31, X
    22a6:	13 97       	sbiw	r26, 0x03	; 3
    22a8:	ec 0d       	add	r30, r12
    22aa:	fd 1d       	adc	r31, r13
    22ac:	81 89       	ldd	r24, Z+17	; 0x11
    22ae:	8f 70       	andi	r24, 0x0F	; 15
    22b0:	81 8b       	std	Z+17, r24	; 0x11
    22b2:	12 96       	adiw	r26, 0x02	; 2
    22b4:	ed 91       	ld	r30, X+
    22b6:	fc 91       	ld	r31, X
    22b8:	13 97       	sbiw	r26, 0x03	; 3
    22ba:	ec 0d       	add	r30, r12
    22bc:	fd 1d       	adc	r31, r13
    22be:	92 94       	swap	r9
    22c0:	80 ef       	ldi	r24, 0xF0	; 240
    22c2:	98 22       	and	r9, r24
    22c4:	36 c0       	rjmp	.+108    	; 0x2332 <qtm_acquisition_process+0x45a>
    22c6:	02 80       	ldd	r0, Z+2	; 0x02
    22c8:	f3 81       	ldd	r31, Z+3	; 0x03
    22ca:	e0 2d       	mov	r30, r0
    22cc:	ec 0d       	add	r30, r12
    22ce:	fd 1d       	adc	r31, r13
    22d0:	9a 01       	movw	r18, r20
    22d2:	03 88       	ldd	r0, Z+19	; 0x13
    22d4:	02 c0       	rjmp	.+4      	; 0x22da <qtm_acquisition_process+0x402>
    22d6:	36 95       	lsr	r19
    22d8:	27 95       	ror	r18
    22da:	0a 94       	dec	r0
    22dc:	e2 f7       	brpl	.-8      	; 0x22d6 <qtm_acquisition_process+0x3fe>
    22de:	2c 83       	std	Y+4, r18	; 0x04
    22e0:	3d 83       	std	Y+5, r19	; 0x05
    22e2:	81 89       	ldd	r24, Z+17	; 0x11
    22e4:	8f 70       	andi	r24, 0x0F	; 15
    22e6:	98 2e       	mov	r9, r24
    22e8:	91 f0       	breq	.+36     	; 0x230e <qtm_acquisition_process+0x436>
    22ea:	b9 01       	movw	r22, r18
    22ec:	c1 01       	movw	r24, r2
    22ee:	0e 94 dc 0d 	call	0x1bb8	; 0x1bb8 <charge_share_test>
    22f2:	81 11       	cpse	r24, r1
    22f4:	04 c0       	rjmp	.+8      	; 0x22fe <qtm_acquisition_process+0x426>
    22f6:	9a 94       	dec	r9
    22f8:	d7 01       	movw	r26, r14
    22fa:	7c 92       	st	X, r7
    22fc:	0a c0       	rjmp	.+20     	; 0x2312 <qtm_acquisition_process+0x43a>
    22fe:	b7 e0       	ldi	r27, 0x07	; 7
    2300:	9b 12       	cpse	r9, r27
    2302:	03 c0       	rjmp	.+6      	; 0x230a <qtm_acquisition_process+0x432>
    2304:	f7 01       	movw	r30, r14
    2306:	70 82       	st	Z, r7
    2308:	04 c0       	rjmp	.+8      	; 0x2312 <qtm_acquisition_process+0x43a>
    230a:	93 94       	inc	r9
    230c:	02 c0       	rjmp	.+4      	; 0x2312 <qtm_acquisition_process+0x43a>
    230e:	99 24       	eor	r9, r9
    2310:	93 94       	inc	r9
    2312:	d8 01       	movw	r26, r16
    2314:	12 96       	adiw	r26, 0x02	; 2
    2316:	ed 91       	ld	r30, X+
    2318:	fc 91       	ld	r31, X
    231a:	13 97       	sbiw	r26, 0x03	; 3
    231c:	ec 0d       	add	r30, r12
    231e:	fd 1d       	adc	r31, r13
    2320:	81 89       	ldd	r24, Z+17	; 0x11
    2322:	80 7f       	andi	r24, 0xF0	; 240
    2324:	81 8b       	std	Z+17, r24	; 0x11
    2326:	12 96       	adiw	r26, 0x02	; 2
    2328:	ed 91       	ld	r30, X+
    232a:	fc 91       	ld	r31, X
    232c:	13 97       	sbiw	r26, 0x03	; 3
    232e:	ec 0d       	add	r30, r12
    2330:	fd 1d       	adc	r31, r13
    2332:	81 89       	ldd	r24, Z+17	; 0x11
    2334:	98 2a       	or	r9, r24
    2336:	91 8a       	std	Z+17, r9	; 0x11
    2338:	14 96       	adiw	r26, 0x04	; 4
    233a:	ed 91       	ld	r30, X+
    233c:	fc 91       	ld	r31, X
    233e:	15 97       	sbiw	r26, 0x05	; 5
    2340:	ea 0d       	add	r30, r10
    2342:	fb 1d       	adc	r31, r11
    2344:	2c 81       	ldd	r18, Y+4	; 0x04
    2346:	3d 81       	ldd	r19, Y+5	; 0x05
    2348:	21 83       	std	Z+1, r18	; 0x01
    234a:	32 83       	std	Z+2, r19	; 0x02
    234c:	80 81       	ld	r24, Z
    234e:	81 30       	cpi	r24, 0x01	; 1
    2350:	b9 f4       	brne	.+46     	; 0x2380 <qtm_acquisition_process+0x4a8>
    2352:	21 15       	cp	r18, r1
    2354:	42 e0       	ldi	r20, 0x02	; 2
    2356:	34 07       	cpc	r19, r20
    2358:	28 f0       	brcs	.+10     	; 0x2364 <qtm_acquisition_process+0x48c>
    235a:	2f 5f       	subi	r18, 0xFF	; 255
    235c:	31 40       	sbci	r19, 0x01	; 1
    235e:	2c 83       	std	Y+4, r18	; 0x04
    2360:	3d 83       	std	Y+5, r19	; 0x05
    2362:	07 c0       	rjmp	.+14     	; 0x2372 <qtm_acquisition_process+0x49a>
    2364:	c2 01       	movw	r24, r4
    2366:	ac 81       	ldd	r26, Y+4	; 0x04
    2368:	bd 81       	ldd	r27, Y+5	; 0x05
    236a:	8a 1b       	sub	r24, r26
    236c:	9b 0b       	sbc	r25, r27
    236e:	8c 83       	std	Y+4, r24	; 0x04
    2370:	9d 83       	std	Y+5, r25	; 0x05
    2372:	2c 81       	ldd	r18, Y+4	; 0x04
    2374:	3d 81       	ldd	r19, Y+5	; 0x05
    2376:	2b 30       	cpi	r18, 0x0B	; 11
    2378:	31 05       	cpc	r19, r1
    237a:	10 f0       	brcs	.+4      	; 0x2380 <qtm_acquisition_process+0x4a8>
    237c:	35 e4       	ldi	r19, 0x45	; 69
    237e:	30 83       	st	Z, r19
    2380:	4f ef       	ldi	r20, 0xFF	; 255
    2382:	24 1a       	sub	r2, r20
    2384:	34 0a       	sbc	r3, r20
    2386:	55 e0       	ldi	r21, 0x05	; 5
    2388:	a5 0e       	add	r10, r21
    238a:	b1 1c       	adc	r11, r1
    238c:	84 e1       	ldi	r24, 0x14	; 20
    238e:	c8 0e       	add	r12, r24
    2390:	d1 1c       	adc	r13, r1
    2392:	d5 cd       	rjmp	.-1110   	; 0x1f3e <qtm_acquisition_process+0x66>
    2394:	82 e0       	ldi	r24, 0x02	; 2
    2396:	80 93 65 41 	sts	0x4165, r24	; 0x804165 <touch_seq_lib_state>
    239a:	09 c0       	rjmp	.+18     	; 0x23ae <qtm_acquisition_process+0x4d6>
    239c:	b3 e0       	ldi	r27, 0x03	; 3
    239e:	b9 83       	std	Y+1, r27	; 0x01
    23a0:	06 c0       	rjmp	.+12     	; 0x23ae <qtm_acquisition_process+0x4d6>
    23a2:	49 2f       	mov	r20, r25
    23a4:	40 95       	com	r20
    23a6:	44 1f       	adc	r20, r20
    23a8:	44 27       	eor	r20, r20
    23aa:	44 1f       	adc	r20, r20
    23ac:	4c ce       	rjmp	.-872    	; 0x2046 <qtm_acquisition_process+0x16e>
    23ae:	89 81       	ldd	r24, Y+1	; 0x01
    23b0:	27 96       	adiw	r28, 0x07	; 7
    23b2:	cd bf       	out	0x3d, r28	; 61
    23b4:	de bf       	out	0x3e, r29	; 62
    23b6:	df 91       	pop	r29
    23b8:	cf 91       	pop	r28
    23ba:	1f 91       	pop	r17
    23bc:	0f 91       	pop	r16
    23be:	ff 90       	pop	r15
    23c0:	ef 90       	pop	r14
    23c2:	df 90       	pop	r13
    23c4:	cf 90       	pop	r12
    23c6:	bf 90       	pop	r11
    23c8:	af 90       	pop	r10
    23ca:	9f 90       	pop	r9
    23cc:	8f 90       	pop	r8
    23ce:	7f 90       	pop	r7
    23d0:	6f 90       	pop	r6
    23d2:	5f 90       	pop	r5
    23d4:	4f 90       	pop	r4
    23d6:	3f 90       	pop	r3
    23d8:	2f 90       	pop	r2
    23da:	08 95       	ret

000023dc <qtm_ptc_init_acquisition_module>:
    23dc:	5f 92       	push	r5
    23de:	6f 92       	push	r6
    23e0:	7f 92       	push	r7
    23e2:	8f 92       	push	r8
    23e4:	9f 92       	push	r9
    23e6:	af 92       	push	r10
    23e8:	bf 92       	push	r11
    23ea:	cf 92       	push	r12
    23ec:	df 92       	push	r13
    23ee:	ef 92       	push	r14
    23f0:	ff 92       	push	r15
    23f2:	0f 93       	push	r16
    23f4:	1f 93       	push	r17
    23f6:	cf 93       	push	r28
    23f8:	df 93       	push	r29
    23fa:	00 97       	sbiw	r24, 0x00	; 0
    23fc:	09 f4       	brne	.+2      	; 0x2400 <qtm_ptc_init_acquisition_module+0x24>
    23fe:	92 c0       	rjmp	.+292    	; 0x2524 <qtm_ptc_init_acquisition_module+0x148>
    2400:	dc 01       	movw	r26, r24
    2402:	ed 91       	ld	r30, X+
    2404:	fc 91       	ld	r31, X
    2406:	60 81       	ld	r22, Z
    2408:	71 81       	ldd	r23, Z+1	; 0x01
    240a:	40 e0       	ldi	r20, 0x00	; 0
    240c:	50 e0       	ldi	r21, 0x00	; 0
    240e:	20 e0       	ldi	r18, 0x00	; 0
    2410:	30 e0       	ldi	r19, 0x00	; 0
    2412:	b0 e0       	ldi	r27, 0x00	; 0
    2414:	10 e0       	ldi	r17, 0x00	; 0
    2416:	f1 2c       	mov	r15, r1
    2418:	e1 2c       	mov	r14, r1
    241a:	91 2c       	mov	r9, r1
    241c:	81 2c       	mov	r8, r1
    241e:	71 2c       	mov	r7, r1
    2420:	61 2c       	mov	r6, r1
    2422:	26 17       	cp	r18, r22
    2424:	37 07       	cpc	r19, r23
    2426:	51 f1       	breq	.+84     	; 0x247c <qtm_ptc_init_acquisition_module+0xa0>
    2428:	ec 01       	movw	r28, r24
    242a:	ea 81       	ldd	r30, Y+2	; 0x02
    242c:	fb 81       	ldd	r31, Y+3	; 0x03
    242e:	e4 0f       	add	r30, r20
    2430:	f5 1f       	adc	r31, r21
    2432:	a0 80       	ld	r10, Z
    2434:	a0 85       	ldd	r26, Z+8	; 0x08
    2436:	aa 2a       	or	r10, r26
    2438:	b1 80       	ldd	r11, Z+1	; 0x01
    243a:	a1 85       	ldd	r26, Z+9	; 0x09
    243c:	ba 2a       	or	r11, r26
    243e:	c2 80       	ldd	r12, Z+2	; 0x02
    2440:	a2 85       	ldd	r26, Z+10	; 0x0a
    2442:	ca 2a       	or	r12, r26
    2444:	d3 80       	ldd	r13, Z+3	; 0x03
    2446:	a3 85       	ldd	r26, Z+11	; 0x0b
    2448:	da 2a       	or	r13, r26
    244a:	d4 81       	ldd	r29, Z+4	; 0x04
    244c:	a4 85       	ldd	r26, Z+12	; 0x0c
    244e:	da 2b       	or	r29, r26
    2450:	c5 81       	ldd	r28, Z+5	; 0x05
    2452:	a5 85       	ldd	r26, Z+13	; 0x0d
    2454:	ca 2b       	or	r28, r26
    2456:	56 80       	ldd	r5, Z+6	; 0x06
    2458:	a6 85       	ldd	r26, Z+14	; 0x0e
    245a:	a5 29       	or	r26, r5
    245c:	57 80       	ldd	r5, Z+7	; 0x07
    245e:	e7 85       	ldd	r30, Z+15	; 0x0f
    2460:	e5 29       	or	r30, r5
    2462:	ba 29       	or	r27, r10
    2464:	1b 29       	or	r17, r11
    2466:	fc 28       	or	r15, r12
    2468:	ed 28       	or	r14, r13
    246a:	9d 2a       	or	r9, r29
    246c:	8c 2a       	or	r8, r28
    246e:	7a 2a       	or	r7, r26
    2470:	6e 2a       	or	r6, r30
    2472:	2f 5f       	subi	r18, 0xFF	; 255
    2474:	3f 4f       	sbci	r19, 0xFF	; 255
    2476:	4c 5e       	subi	r20, 0xEC	; 236
    2478:	5f 4f       	sbci	r21, 0xFF	; 255
    247a:	d3 cf       	rjmp	.-90     	; 0x2422 <qtm_ptc_init_acquisition_module+0x46>
    247c:	2b 2f       	mov	r18, r27
    247e:	31 2f       	mov	r19, r17
    2480:	4f 2d       	mov	r20, r15
    2482:	5e 2d       	mov	r21, r14
    2484:	69 2d       	mov	r22, r9
    2486:	78 2d       	mov	r23, r8
    2488:	87 2d       	mov	r24, r7
    248a:	96 2d       	mov	r25, r6
    248c:	a0 e0       	ldi	r26, 0x00	; 0
    248e:	0e 94 3a 14 	call	0x2874	; 0x2874 <__cmpdi2_s8>
    2492:	09 f4       	brne	.+2      	; 0x2496 <qtm_ptc_init_acquisition_module+0xba>
    2494:	49 c0       	rjmp	.+146    	; 0x2528 <qtm_ptc_init_acquisition_module+0x14c>
    2496:	81 e0       	ldi	r24, 0x01	; 1
    2498:	80 93 65 41 	sts	0x4165, r24	; 0x804165 <touch_seq_lib_state>
    249c:	24 e2       	ldi	r18, 0x24	; 36
    249e:	c2 2e       	mov	r12, r18
    24a0:	21 e4       	ldi	r18, 0x41	; 65
    24a2:	d2 2e       	mov	r13, r18
    24a4:	c0 e0       	ldi	r28, 0x00	; 0
    24a6:	d0 e0       	ldi	r29, 0x00	; 0
    24a8:	aa 24       	eor	r10, r10
    24aa:	a3 94       	inc	r10
    24ac:	b1 2c       	mov	r11, r1
    24ae:	4c e0       	ldi	r20, 0x0C	; 12
    24b0:	54 2e       	mov	r5, r20
    24b2:	2b 2f       	mov	r18, r27
    24b4:	31 2f       	mov	r19, r17
    24b6:	4f 2d       	mov	r20, r15
    24b8:	5e 2d       	mov	r21, r14
    24ba:	69 2d       	mov	r22, r9
    24bc:	78 2d       	mov	r23, r8
    24be:	87 2d       	mov	r24, r7
    24c0:	96 2d       	mov	r25, r6
    24c2:	0c 2f       	mov	r16, r28
    24c4:	0e 94 1e 14 	call	0x283c	; 0x283c <__lshrdi3>
    24c8:	21 70       	andi	r18, 0x01	; 1
    24ca:	30 e0       	ldi	r19, 0x00	; 0
    24cc:	40 e0       	ldi	r20, 0x00	; 0
    24ce:	50 e0       	ldi	r21, 0x00	; 0
    24d0:	60 e0       	ldi	r22, 0x00	; 0
    24d2:	70 e0       	ldi	r23, 0x00	; 0
    24d4:	80 e0       	ldi	r24, 0x00	; 0
    24d6:	90 e0       	ldi	r25, 0x00	; 0
    24d8:	a0 e0       	ldi	r26, 0x00	; 0
    24da:	0e 94 3a 14 	call	0x2874	; 0x2874 <__cmpdi2_s8>
    24de:	c9 f0       	breq	.+50     	; 0x2512 <qtm_ptc_init_acquisition_module+0x136>
    24e0:	f6 01       	movw	r30, r12
    24e2:	80 81       	ld	r24, Z
    24e4:	e8 2f       	mov	r30, r24
    24e6:	e2 95       	swap	r30
    24e8:	e6 95       	lsr	r30
    24ea:	e7 70       	andi	r30, 0x07	; 7
    24ec:	f0 e0       	ldi	r31, 0x00	; 0
    24ee:	ee 0f       	add	r30, r30
    24f0:	ff 1f       	adc	r31, r31
    24f2:	ea 5e       	subi	r30, 0xEA	; 234
    24f4:	fe 4b       	sbci	r31, 0xBE	; 190
    24f6:	01 90       	ld	r0, Z+
    24f8:	f0 81       	ld	r31, Z
    24fa:	e0 2d       	mov	r30, r0
    24fc:	8f 71       	andi	r24, 0x1F	; 31
    24fe:	95 01       	movw	r18, r10
    2500:	02 c0       	rjmp	.+4      	; 0x2506 <qtm_ptc_init_acquisition_module+0x12a>
    2502:	22 0f       	add	r18, r18
    2504:	33 1f       	adc	r19, r19
    2506:	8a 95       	dec	r24
    2508:	e2 f7       	brpl	.-8      	; 0x2502 <qtm_ptc_init_acquisition_module+0x126>
    250a:	22 83       	std	Z+2, r18	; 0x02
    250c:	26 83       	std	Z+6, r18	; 0x06
    250e:	53 86       	std	Z+11, r5	; 0x0b
    2510:	25 87       	std	Z+13, r18	; 0x0d
    2512:	21 96       	adiw	r28, 0x01	; 1
    2514:	3f ef       	ldi	r19, 0xFF	; 255
    2516:	c3 1a       	sub	r12, r19
    2518:	d3 0a       	sbc	r13, r19
    251a:	c0 33       	cpi	r28, 0x30	; 48
    251c:	d1 05       	cpc	r29, r1
    251e:	49 f6       	brne	.-110    	; 0x24b2 <qtm_ptc_init_acquisition_module+0xd6>
    2520:	80 e0       	ldi	r24, 0x00	; 0
    2522:	03 c0       	rjmp	.+6      	; 0x252a <qtm_ptc_init_acquisition_module+0x14e>
    2524:	8b e0       	ldi	r24, 0x0B	; 11
    2526:	01 c0       	rjmp	.+2      	; 0x252a <qtm_ptc_init_acquisition_module+0x14e>
    2528:	82 e0       	ldi	r24, 0x02	; 2
    252a:	df 91       	pop	r29
    252c:	cf 91       	pop	r28
    252e:	1f 91       	pop	r17
    2530:	0f 91       	pop	r16
    2532:	ff 90       	pop	r15
    2534:	ef 90       	pop	r14
    2536:	df 90       	pop	r13
    2538:	cf 90       	pop	r12
    253a:	bf 90       	pop	r11
    253c:	af 90       	pop	r10
    253e:	9f 90       	pop	r9
    2540:	8f 90       	pop	r8
    2542:	7f 90       	pop	r7
    2544:	6f 90       	pop	r6
    2546:	5f 90       	pop	r5
    2548:	08 95       	ret

0000254a <qtm_ptc_qtlib_assign_signal_memory>:
    254a:	00 97       	sbiw	r24, 0x00	; 0
    254c:	31 f0       	breq	.+12     	; 0x255a <qtm_ptc_qtlib_assign_signal_memory+0x10>
    254e:	80 93 2c 42 	sts	0x422C, r24	; 0x80422c <qtm_raw_data_measurements_ptr>
    2552:	90 93 2d 42 	sts	0x422D, r25	; 0x80422d <qtm_raw_data_measurements_ptr+0x1>
    2556:	80 e0       	ldi	r24, 0x00	; 0
    2558:	08 95       	ret
    255a:	8b e0       	ldi	r24, 0x0B	; 11
    255c:	08 95       	ret

0000255e <qtm_ptc_start_measurement_seq>:
    255e:	61 15       	cp	r22, r1
    2560:	71 05       	cpc	r23, r1
    2562:	61 f1       	breq	.+88     	; 0x25bc <qtm_ptc_start_measurement_seq+0x5e>
    2564:	00 97       	sbiw	r24, 0x00	; 0
    2566:	51 f1       	breq	.+84     	; 0x25bc <qtm_ptc_start_measurement_seq+0x5e>
    2568:	20 91 65 41 	lds	r18, 0x4165	; 0x804165 <touch_seq_lib_state>
    256c:	22 23       	and	r18, r18
    256e:	41 f1       	breq	.+80     	; 0x25c0 <qtm_ptc_start_measurement_seq+0x62>
    2570:	24 30       	cpi	r18, 0x04	; 4
    2572:	41 f1       	breq	.+80     	; 0x25c4 <qtm_ptc_start_measurement_seq+0x66>
    2574:	80 93 2a 42 	sts	0x422A, r24	; 0x80422a <qtm_acquisition_control_working_set_ptr>
    2578:	90 93 2b 42 	sts	0x422B, r25	; 0x80422b <qtm_acquisition_control_working_set_ptr+0x1>
    257c:	60 93 63 41 	sts	0x4163, r22	; 0x804163 <ptc_seq_measure_complete_pointer>
    2580:	70 93 64 41 	sts	0x4164, r23	; 0x804164 <ptc_seq_measure_complete_pointer+0x1>
    2584:	dc 01       	movw	r26, r24
    2586:	ed 91       	ld	r30, X+
    2588:	fc 91       	ld	r31, X
    258a:	22 81       	ldd	r18, Z+2	; 0x02
    258c:	20 34       	cpi	r18, 0x40	; 64
    258e:	19 f4       	brne	.+6      	; 0x2596 <qtm_ptc_start_measurement_seq+0x38>
    2590:	10 92 c1 07 	sts	0x07C1, r1	; 0x8007c1 <__TEXT_REGION_LENGTH__+0x7e07c1>
    2594:	07 c0       	rjmp	.+14     	; 0x25a4 <qtm_ptc_start_measurement_seq+0x46>
    2596:	20 38       	cpi	r18, 0x80	; 128
    2598:	11 f0       	breq	.+4      	; 0x259e <qtm_ptc_start_measurement_seq+0x40>
    259a:	21 38       	cpi	r18, 0x81	; 129
    259c:	31 f4       	brne	.+12     	; 0x25aa <qtm_ptc_start_measurement_seq+0x4c>
    259e:	21 e0       	ldi	r18, 0x01	; 1
    25a0:	20 93 c1 07 	sts	0x07C1, r18	; 0x8007c1 <__TEXT_REGION_LENGTH__+0x7e07c1>
    25a4:	10 92 cb 07 	sts	0x07CB, r1	; 0x8007cb <__TEXT_REGION_LENGTH__+0x7e07cb>
    25a8:	11 c0       	rjmp	.+34     	; 0x25cc <qtm_ptc_start_measurement_seq+0x6e>
    25aa:	22 38       	cpi	r18, 0x82	; 130
    25ac:	69 f4       	brne	.+26     	; 0x25c8 <qtm_ptc_start_measurement_seq+0x6a>
    25ae:	21 e0       	ldi	r18, 0x01	; 1
    25b0:	20 93 c1 07 	sts	0x07C1, r18	; 0x8007c1 <__TEXT_REGION_LENGTH__+0x7e07c1>
    25b4:	29 e0       	ldi	r18, 0x09	; 9
    25b6:	20 93 cb 07 	sts	0x07CB, r18	; 0x8007cb <__TEXT_REGION_LENGTH__+0x7e07cb>
    25ba:	08 c0       	rjmp	.+16     	; 0x25cc <qtm_ptc_start_measurement_seq+0x6e>
    25bc:	8b e0       	ldi	r24, 0x0B	; 11
    25be:	08 95       	ret
    25c0:	83 e0       	ldi	r24, 0x03	; 3
    25c2:	08 95       	ret
    25c4:	81 e0       	ldi	r24, 0x01	; 1
    25c6:	08 95       	ret
    25c8:	82 e0       	ldi	r24, 0x02	; 2
    25ca:	08 95       	ret
    25cc:	10 92 c0 07 	sts	0x07C0, r1	; 0x8007c0 <__TEXT_REGION_LENGTH__+0x7e07c0>
    25d0:	dc 01       	movw	r26, r24
    25d2:	ed 91       	ld	r30, X+
    25d4:	fc 91       	ld	r31, X
    25d6:	84 81       	ldd	r24, Z+4	; 0x04
    25d8:	92 81       	ldd	r25, Z+2	; 0x02
    25da:	90 34       	cpi	r25, 0x40	; 64
    25dc:	51 f4       	brne	.+20     	; 0x25f2 <qtm_ptc_start_measurement_seq+0x94>
    25de:	10 92 c5 07 	sts	0x07C5, r1	; 0x8007c5 <__TEXT_REGION_LENGTH__+0x7e07c5>
    25e2:	80 31       	cpi	r24, 0x10	; 16
    25e4:	10 f4       	brcc	.+4      	; 0x25ea <qtm_ptc_start_measurement_seq+0x8c>
    25e6:	80 62       	ori	r24, 0x20	; 32
    25e8:	01 c0       	rjmp	.+2      	; 0x25ec <qtm_ptc_start_measurement_seq+0x8e>
    25ea:	8f e2       	ldi	r24, 0x2F	; 47
    25ec:	80 93 c3 07 	sts	0x07C3, r24	; 0x8007c3 <__TEXT_REGION_LENGTH__+0x7e07c3>
    25f0:	08 c0       	rjmp	.+16     	; 0x2602 <qtm_ptc_start_measurement_seq+0xa4>
    25f2:	90 e2       	ldi	r25, 0x20	; 32
    25f4:	90 93 c3 07 	sts	0x07C3, r25	; 0x8007c3 <__TEXT_REGION_LENGTH__+0x7e07c3>
    25f8:	8f 30       	cpi	r24, 0x0F	; 15
    25fa:	08 f0       	brcs	.+2      	; 0x25fe <qtm_ptc_start_measurement_seq+0xa0>
    25fc:	8f e0       	ldi	r24, 0x0F	; 15
    25fe:	80 93 c5 07 	sts	0x07C5, r24	; 0x8007c5 <__TEXT_REGION_LENGTH__+0x7e07c5>
    2602:	81 e0       	ldi	r24, 0x01	; 1
    2604:	80 93 d3 07 	sts	0x07D3, r24	; 0x8007d3 <__TEXT_REGION_LENGTH__+0x7e07d3>
    2608:	80 93 d2 07 	sts	0x07D2, r24	; 0x8007d2 <__TEXT_REGION_LENGTH__+0x7e07d2>
    260c:	80 93 bd 40 	sts	0x40BD, r24	; 0x8040bd <qtm_which_mode_current>
    2610:	10 92 66 41 	sts	0x4166, r1	; 0x804166 <current_measure_channel>
    2614:	10 92 67 41 	sts	0x4167, r1	; 0x804167 <current_measure_channel+0x1>
    2618:	0e 94 24 0e 	call	0x1c48	; 0x1c48 <select_next_channel_to_measure>
    261c:	81 11       	cpse	r24, r1
    261e:	0b c0       	rjmp	.+22     	; 0x2636 <qtm_ptc_start_measurement_seq+0xd8>
    2620:	84 e0       	ldi	r24, 0x04	; 4
    2622:	80 93 65 41 	sts	0x4165, r24	; 0x804165 <touch_seq_lib_state>
    2626:	80 91 66 41 	lds	r24, 0x4166	; 0x804166 <current_measure_channel>
    262a:	90 91 67 41 	lds	r25, 0x4167	; 0x804167 <current_measure_channel+0x1>
    262e:	0e 94 57 0e 	call	0x1cae	; 0x1cae <qtm_measure_node>
    2632:	80 e0       	ldi	r24, 0x00	; 0
    2634:	08 95       	ret
    2636:	82 e0       	ldi	r24, 0x02	; 2
    2638:	80 93 65 41 	sts	0x4165, r24	; 0x804165 <touch_seq_lib_state>
    263c:	08 95       	ret

0000263e <qtm_enable_sensor_node>:
    263e:	00 97       	sbiw	r24, 0x00	; 0
    2640:	c9 f0       	breq	.+50     	; 0x2674 <qtm_enable_sensor_node+0x36>
    2642:	dc 01       	movw	r26, r24
    2644:	ed 91       	ld	r30, X+
    2646:	fc 91       	ld	r31, X
    2648:	11 97       	sbiw	r26, 0x01	; 1
    264a:	20 81       	ld	r18, Z
    264c:	31 81       	ldd	r19, Z+1	; 0x01
    264e:	26 17       	cp	r18, r22
    2650:	37 07       	cpc	r19, r23
    2652:	90 f0       	brcs	.+36     	; 0x2678 <qtm_enable_sensor_node+0x3a>
    2654:	45 e0       	ldi	r20, 0x05	; 5
    2656:	46 9f       	mul	r20, r22
    2658:	90 01       	movw	r18, r0
    265a:	47 9f       	mul	r20, r23
    265c:	30 0d       	add	r19, r0
    265e:	11 24       	eor	r1, r1
    2660:	14 96       	adiw	r26, 0x04	; 4
    2662:	ed 91       	ld	r30, X+
    2664:	fc 91       	ld	r31, X
    2666:	15 97       	sbiw	r26, 0x05	; 5
    2668:	e2 0f       	add	r30, r18
    266a:	f3 1f       	adc	r31, r19
    266c:	81 e0       	ldi	r24, 0x01	; 1
    266e:	80 83       	st	Z, r24
    2670:	80 e0       	ldi	r24, 0x00	; 0
    2672:	08 95       	ret
    2674:	8b e0       	ldi	r24, 0x0B	; 11
    2676:	08 95       	ret
    2678:	82 e0       	ldi	r24, 0x02	; 2
    267a:	08 95       	ret

0000267c <qtm_calibrate_sensor_node>:
    267c:	fc 01       	movw	r30, r24
    267e:	89 2b       	or	r24, r25
    2680:	d1 f1       	breq	.+116    	; 0x26f6 <qtm_calibrate_sensor_node+0x7a>
    2682:	a0 81       	ld	r26, Z
    2684:	b1 81       	ldd	r27, Z+1	; 0x01
    2686:	8d 91       	ld	r24, X+
    2688:	9c 91       	ld	r25, X
    268a:	11 97       	sbiw	r26, 0x01	; 1
    268c:	86 17       	cp	r24, r22
    268e:	97 07       	cpc	r25, r23
    2690:	a0 f1       	brcs	.+104    	; 0x26fa <qtm_calibrate_sensor_node+0x7e>
    2692:	12 96       	adiw	r26, 0x02	; 2
    2694:	9c 91       	ld	r25, X
    2696:	04 80       	ldd	r0, Z+4	; 0x04
    2698:	f5 81       	ldd	r31, Z+5	; 0x05
    269a:	e0 2d       	mov	r30, r0
    269c:	90 34       	cpi	r25, 0x40	; 64
    269e:	59 f4       	brne	.+22     	; 0x26b6 <qtm_calibrate_sensor_node+0x3a>
    26a0:	85 e0       	ldi	r24, 0x05	; 5
    26a2:	86 9f       	mul	r24, r22
    26a4:	d0 01       	movw	r26, r0
    26a6:	87 9f       	mul	r24, r23
    26a8:	b0 0d       	add	r27, r0
    26aa:	11 24       	eor	r1, r1
    26ac:	ae 0f       	add	r26, r30
    26ae:	bf 1f       	adc	r27, r31
    26b0:	80 ea       	ldi	r24, 0xA0	; 160
    26b2:	90 e0       	ldi	r25, 0x00	; 0
    26b4:	0d c0       	rjmp	.+26     	; 0x26d0 <qtm_calibrate_sensor_node+0x54>
    26b6:	90 58       	subi	r25, 0x80	; 128
    26b8:	93 30       	cpi	r25, 0x03	; 3
    26ba:	80 f4       	brcc	.+32     	; 0x26dc <qtm_calibrate_sensor_node+0x60>
    26bc:	85 e0       	ldi	r24, 0x05	; 5
    26be:	86 9f       	mul	r24, r22
    26c0:	d0 01       	movw	r26, r0
    26c2:	87 9f       	mul	r24, r23
    26c4:	b0 0d       	add	r27, r0
    26c6:	11 24       	eor	r1, r1
    26c8:	ae 0f       	add	r26, r30
    26ca:	bf 1f       	adc	r27, r31
    26cc:	80 ef       	ldi	r24, 0xF0	; 240
    26ce:	90 e0       	ldi	r25, 0x00	; 0
    26d0:	13 96       	adiw	r26, 0x03	; 3
    26d2:	8d 93       	st	X+, r24
    26d4:	9c 93       	st	X, r25
    26d6:	14 97       	sbiw	r26, 0x04	; 4
    26d8:	80 e0       	ldi	r24, 0x00	; 0
    26da:	01 c0       	rjmp	.+2      	; 0x26de <qtm_calibrate_sensor_node+0x62>
    26dc:	82 e0       	ldi	r24, 0x02	; 2
    26de:	95 e0       	ldi	r25, 0x05	; 5
    26e0:	96 9f       	mul	r25, r22
    26e2:	90 01       	movw	r18, r0
    26e4:	97 9f       	mul	r25, r23
    26e6:	30 0d       	add	r19, r0
    26e8:	11 24       	eor	r1, r1
    26ea:	e2 0f       	add	r30, r18
    26ec:	f3 1f       	adc	r31, r19
    26ee:	90 81       	ld	r25, Z
    26f0:	92 60       	ori	r25, 0x02	; 2
    26f2:	90 83       	st	Z, r25
    26f4:	08 95       	ret
    26f6:	8b e0       	ldi	r24, 0x0B	; 11
    26f8:	08 95       	ret
    26fa:	82 e0       	ldi	r24, 0x02	; 2
    26fc:	08 95       	ret

000026fe <qtm_avr_da_ptc_handler_wcomp>:
    26fe:	20 91 da 07 	lds	r18, 0x07DA	; 0x8007da <__TEXT_REGION_LENGTH__+0x7e07da>
    2702:	30 91 db 07 	lds	r19, 0x07DB	; 0x8007db <__TEXT_REGION_LENGTH__+0x7e07db>
    2706:	60 91 66 41 	lds	r22, 0x4166	; 0x804166 <current_measure_channel>
    270a:	70 91 67 41 	lds	r23, 0x4167	; 0x804167 <current_measure_channel+0x1>
    270e:	cb 01       	movw	r24, r22
    2710:	88 0f       	add	r24, r24
    2712:	99 1f       	adc	r25, r25
    2714:	e0 91 2c 42 	lds	r30, 0x422C	; 0x80422c <qtm_raw_data_measurements_ptr>
    2718:	f0 91 2d 42 	lds	r31, 0x422D	; 0x80422d <qtm_raw_data_measurements_ptr+0x1>
    271c:	e8 0f       	add	r30, r24
    271e:	f9 1f       	adc	r31, r25
    2720:	20 83       	st	Z, r18
    2722:	31 83       	std	Z+1, r19	; 0x01
    2724:	a0 91 2a 42 	lds	r26, 0x422A	; 0x80422a <qtm_acquisition_control_working_set_ptr>
    2728:	b0 91 2b 42 	lds	r27, 0x422B	; 0x80422b <qtm_acquisition_control_working_set_ptr+0x1>
    272c:	44 e1       	ldi	r20, 0x14	; 20
    272e:	46 9f       	mul	r20, r22
    2730:	c0 01       	movw	r24, r0
    2732:	47 9f       	mul	r20, r23
    2734:	90 0d       	add	r25, r0
    2736:	11 24       	eor	r1, r1
    2738:	12 96       	adiw	r26, 0x02	; 2
    273a:	ed 91       	ld	r30, X+
    273c:	fc 91       	ld	r31, X
    273e:	13 97       	sbiw	r26, 0x03	; 3
    2740:	e8 0f       	add	r30, r24
    2742:	f9 1f       	adc	r31, r25
    2744:	92 89       	ldd	r25, Z+18	; 0x12
    2746:	9f 70       	andi	r25, 0x0F	; 15
    2748:	83 89       	ldd	r24, Z+19	; 0x13
    274a:	98 17       	cp	r25, r24
    274c:	10 f4       	brcc	.+4      	; 0x2752 <qtm_avr_da_ptc_handler_wcomp+0x54>
    274e:	89 1b       	sub	r24, r25
    2750:	01 c0       	rjmp	.+2      	; 0x2754 <qtm_avr_da_ptc_handler_wcomp+0x56>
    2752:	80 e0       	ldi	r24, 0x00	; 0
    2754:	95 e0       	ldi	r25, 0x05	; 5
    2756:	96 9f       	mul	r25, r22
    2758:	a0 01       	movw	r20, r0
    275a:	97 9f       	mul	r25, r23
    275c:	50 0d       	add	r21, r0
    275e:	11 24       	eor	r1, r1
    2760:	14 96       	adiw	r26, 0x04	; 4
    2762:	ed 91       	ld	r30, X+
    2764:	fc 91       	ld	r31, X
    2766:	15 97       	sbiw	r26, 0x05	; 5
    2768:	e4 0f       	add	r30, r20
    276a:	f5 1f       	adc	r31, r21
    276c:	02 c0       	rjmp	.+4      	; 0x2772 <qtm_avr_da_ptc_handler_wcomp+0x74>
    276e:	36 95       	lsr	r19
    2770:	27 95       	ror	r18
    2772:	8a 95       	dec	r24
    2774:	e2 f7       	brpl	.-8      	; 0x276e <qtm_avr_da_ptc_handler_wcomp+0x70>
    2776:	21 83       	std	Z+1, r18	; 0x01
    2778:	32 83       	std	Z+2, r19	; 0x02
    277a:	82 e0       	ldi	r24, 0x02	; 2
    277c:	80 93 65 41 	sts	0x4165, r24	; 0x804165 <touch_seq_lib_state>
    2780:	e0 91 61 41 	lds	r30, 0x4161	; 0x804161 <ptc_wcomp_happened_pointer>
    2784:	f0 91 62 41 	lds	r31, 0x4162	; 0x804162 <ptc_wcomp_happened_pointer+0x1>
    2788:	09 94       	ijmp

0000278a <qtm_avr_da_ptc_handler_eoc>:
    278a:	10 92 c0 07 	sts	0x07C0, r1	; 0x8007c0 <__TEXT_REGION_LENGTH__+0x7e07c0>
    278e:	80 91 bd 40 	lds	r24, 0x40BD	; 0x8040bd <qtm_which_mode_current>
    2792:	81 30       	cpi	r24, 0x01	; 1
    2794:	09 f0       	breq	.+2      	; 0x2798 <qtm_avr_da_ptc_handler_eoc+0xe>
    2796:	4e c0       	rjmp	.+156    	; 0x2834 <qtm_avr_da_ptc_handler_eoc+0xaa>
    2798:	40 91 da 07 	lds	r20, 0x07DA	; 0x8007da <__TEXT_REGION_LENGTH__+0x7e07da>
    279c:	50 91 db 07 	lds	r21, 0x07DB	; 0x8007db <__TEXT_REGION_LENGTH__+0x7e07db>
    27a0:	80 91 66 41 	lds	r24, 0x4166	; 0x804166 <current_measure_channel>
    27a4:	90 91 67 41 	lds	r25, 0x4167	; 0x804167 <current_measure_channel+0x1>
    27a8:	9c 01       	movw	r18, r24
    27aa:	22 0f       	add	r18, r18
    27ac:	33 1f       	adc	r19, r19
    27ae:	e0 91 2c 42 	lds	r30, 0x422C	; 0x80422c <qtm_raw_data_measurements_ptr>
    27b2:	f0 91 2d 42 	lds	r31, 0x422D	; 0x80422d <qtm_raw_data_measurements_ptr+0x1>
    27b6:	e2 0f       	add	r30, r18
    27b8:	f3 1f       	adc	r31, r19
    27ba:	40 83       	st	Z, r20
    27bc:	51 83       	std	Z+1, r21	; 0x01
    27be:	01 96       	adiw	r24, 0x01	; 1
    27c0:	80 93 66 41 	sts	0x4166, r24	; 0x804166 <current_measure_channel>
    27c4:	90 93 67 41 	sts	0x4167, r25	; 0x804167 <current_measure_channel+0x1>
    27c8:	0e 94 24 0e 	call	0x1c48	; 0x1c48 <select_next_channel_to_measure>
    27cc:	81 11       	cpse	r24, r1
    27ce:	09 c0       	rjmp	.+18     	; 0x27e2 <qtm_avr_da_ptc_handler_eoc+0x58>
    27d0:	84 e0       	ldi	r24, 0x04	; 4
    27d2:	80 93 65 41 	sts	0x4165, r24	; 0x804165 <touch_seq_lib_state>
    27d6:	80 91 66 41 	lds	r24, 0x4166	; 0x804166 <current_measure_channel>
    27da:	90 91 67 41 	lds	r25, 0x4167	; 0x804167 <current_measure_channel+0x1>
    27de:	0c 94 57 0e 	jmp	0x1cae	; 0x1cae <qtm_measure_node>
    27e2:	10 92 e8 07 	sts	0x07E8, r1	; 0x8007e8 <__TEXT_REGION_LENGTH__+0x7e07e8>
    27e6:	10 92 e9 07 	sts	0x07E9, r1	; 0x8007e9 <__TEXT_REGION_LENGTH__+0x7e07e9>
    27ea:	10 92 ea 07 	sts	0x07EA, r1	; 0x8007ea <__TEXT_REGION_LENGTH__+0x7e07ea>
    27ee:	10 92 eb 07 	sts	0x07EB, r1	; 0x8007eb <__TEXT_REGION_LENGTH__+0x7e07eb>
    27f2:	10 92 ec 07 	sts	0x07EC, r1	; 0x8007ec <__TEXT_REGION_LENGTH__+0x7e07ec>
    27f6:	10 92 ed 07 	sts	0x07ED, r1	; 0x8007ed <__TEXT_REGION_LENGTH__+0x7e07ed>
    27fa:	10 92 f0 07 	sts	0x07F0, r1	; 0x8007f0 <__TEXT_REGION_LENGTH__+0x7e07f0>
    27fe:	10 92 f1 07 	sts	0x07F1, r1	; 0x8007f1 <__TEXT_REGION_LENGTH__+0x7e07f1>
    2802:	10 92 f2 07 	sts	0x07F2, r1	; 0x8007f2 <__TEXT_REGION_LENGTH__+0x7e07f2>
    2806:	10 92 f3 07 	sts	0x07F3, r1	; 0x8007f3 <__TEXT_REGION_LENGTH__+0x7e07f3>
    280a:	10 92 f4 07 	sts	0x07F4, r1	; 0x8007f4 <__TEXT_REGION_LENGTH__+0x7e07f4>
    280e:	10 92 f5 07 	sts	0x07F5, r1	; 0x8007f5 <__TEXT_REGION_LENGTH__+0x7e07f5>
    2812:	10 92 f8 07 	sts	0x07F8, r1	; 0x8007f8 <__TEXT_REGION_LENGTH__+0x7e07f8>
    2816:	10 92 f9 07 	sts	0x07F9, r1	; 0x8007f9 <__TEXT_REGION_LENGTH__+0x7e07f9>
    281a:	10 92 fa 07 	sts	0x07FA, r1	; 0x8007fa <__TEXT_REGION_LENGTH__+0x7e07fa>
    281e:	10 92 fb 07 	sts	0x07FB, r1	; 0x8007fb <__TEXT_REGION_LENGTH__+0x7e07fb>
    2822:	10 92 fc 07 	sts	0x07FC, r1	; 0x8007fc <__TEXT_REGION_LENGTH__+0x7e07fc>
    2826:	10 92 fd 07 	sts	0x07FD, r1	; 0x8007fd <__TEXT_REGION_LENGTH__+0x7e07fd>
    282a:	e0 91 63 41 	lds	r30, 0x4163	; 0x804163 <ptc_seq_measure_complete_pointer>
    282e:	f0 91 64 41 	lds	r31, 0x4164	; 0x804164 <ptc_seq_measure_complete_pointer+0x1>
    2832:	09 94       	ijmp
    2834:	0c 94 7f 13 	jmp	0x26fe	; 0x26fe <qtm_avr_da_ptc_handler_wcomp>

00002838 <__ashrdi3>:
    2838:	97 fb       	bst	r25, 7
    283a:	10 f8       	bld	r1, 0

0000283c <__lshrdi3>:
    283c:	16 94       	lsr	r1
    283e:	00 08       	sbc	r0, r0
    2840:	0f 93       	push	r16
    2842:	08 30       	cpi	r16, 0x08	; 8
    2844:	98 f0       	brcs	.+38     	; 0x286c <__lshrdi3+0x30>
    2846:	08 50       	subi	r16, 0x08	; 8
    2848:	23 2f       	mov	r18, r19
    284a:	34 2f       	mov	r19, r20
    284c:	45 2f       	mov	r20, r21
    284e:	56 2f       	mov	r21, r22
    2850:	67 2f       	mov	r22, r23
    2852:	78 2f       	mov	r23, r24
    2854:	89 2f       	mov	r24, r25
    2856:	90 2d       	mov	r25, r0
    2858:	f4 cf       	rjmp	.-24     	; 0x2842 <__lshrdi3+0x6>
    285a:	05 94       	asr	r0
    285c:	97 95       	ror	r25
    285e:	87 95       	ror	r24
    2860:	77 95       	ror	r23
    2862:	67 95       	ror	r22
    2864:	57 95       	ror	r21
    2866:	47 95       	ror	r20
    2868:	37 95       	ror	r19
    286a:	27 95       	ror	r18
    286c:	0a 95       	dec	r16
    286e:	aa f7       	brpl	.-22     	; 0x285a <__lshrdi3+0x1e>
    2870:	0f 91       	pop	r16
    2872:	08 95       	ret

00002874 <__cmpdi2_s8>:
    2874:	00 24       	eor	r0, r0
    2876:	a7 fd       	sbrc	r26, 7
    2878:	00 94       	com	r0
    287a:	2a 17       	cp	r18, r26
    287c:	30 05       	cpc	r19, r0
    287e:	40 05       	cpc	r20, r0
    2880:	50 05       	cpc	r21, r0
    2882:	60 05       	cpc	r22, r0
    2884:	70 05       	cpc	r23, r0
    2886:	80 05       	cpc	r24, r0
    2888:	90 05       	cpc	r25, r0
    288a:	08 95       	ret

0000288c <sprintf>:
    288c:	0f 93       	push	r16
    288e:	1f 93       	push	r17
    2890:	cf 93       	push	r28
    2892:	df 93       	push	r29
    2894:	cd b7       	in	r28, 0x3d	; 61
    2896:	de b7       	in	r29, 0x3e	; 62
    2898:	2e 97       	sbiw	r28, 0x0e	; 14
    289a:	cd bf       	out	0x3d, r28	; 61
    289c:	de bf       	out	0x3e, r29	; 62
    289e:	0d 89       	ldd	r16, Y+21	; 0x15
    28a0:	1e 89       	ldd	r17, Y+22	; 0x16
    28a2:	86 e0       	ldi	r24, 0x06	; 6
    28a4:	8c 83       	std	Y+4, r24	; 0x04
    28a6:	09 83       	std	Y+1, r16	; 0x01
    28a8:	1a 83       	std	Y+2, r17	; 0x02
    28aa:	8f ef       	ldi	r24, 0xFF	; 255
    28ac:	9f e7       	ldi	r25, 0x7F	; 127
    28ae:	8d 83       	std	Y+5, r24	; 0x05
    28b0:	9e 83       	std	Y+6, r25	; 0x06
    28b2:	ae 01       	movw	r20, r28
    28b4:	47 5e       	subi	r20, 0xE7	; 231
    28b6:	5f 4f       	sbci	r21, 0xFF	; 255
    28b8:	6f 89       	ldd	r22, Y+23	; 0x17
    28ba:	78 8d       	ldd	r23, Y+24	; 0x18
    28bc:	ce 01       	movw	r24, r28
    28be:	01 96       	adiw	r24, 0x01	; 1
    28c0:	0e 94 6f 14 	call	0x28de	; 0x28de <vfprintf>
    28c4:	ef 81       	ldd	r30, Y+7	; 0x07
    28c6:	f8 85       	ldd	r31, Y+8	; 0x08
    28c8:	e0 0f       	add	r30, r16
    28ca:	f1 1f       	adc	r31, r17
    28cc:	10 82       	st	Z, r1
    28ce:	2e 96       	adiw	r28, 0x0e	; 14
    28d0:	cd bf       	out	0x3d, r28	; 61
    28d2:	de bf       	out	0x3e, r29	; 62
    28d4:	df 91       	pop	r29
    28d6:	cf 91       	pop	r28
    28d8:	1f 91       	pop	r17
    28da:	0f 91       	pop	r16
    28dc:	08 95       	ret

000028de <vfprintf>:
    28de:	2f 92       	push	r2
    28e0:	3f 92       	push	r3
    28e2:	4f 92       	push	r4
    28e4:	5f 92       	push	r5
    28e6:	6f 92       	push	r6
    28e8:	7f 92       	push	r7
    28ea:	8f 92       	push	r8
    28ec:	9f 92       	push	r9
    28ee:	af 92       	push	r10
    28f0:	bf 92       	push	r11
    28f2:	cf 92       	push	r12
    28f4:	df 92       	push	r13
    28f6:	ef 92       	push	r14
    28f8:	ff 92       	push	r15
    28fa:	0f 93       	push	r16
    28fc:	1f 93       	push	r17
    28fe:	cf 93       	push	r28
    2900:	df 93       	push	r29
    2902:	cd b7       	in	r28, 0x3d	; 61
    2904:	de b7       	in	r29, 0x3e	; 62
    2906:	2b 97       	sbiw	r28, 0x0b	; 11
    2908:	cd bf       	out	0x3d, r28	; 61
    290a:	de bf       	out	0x3e, r29	; 62
    290c:	6c 01       	movw	r12, r24
    290e:	7b 01       	movw	r14, r22
    2910:	8a 01       	movw	r16, r20
    2912:	fc 01       	movw	r30, r24
    2914:	16 82       	std	Z+6, r1	; 0x06
    2916:	17 82       	std	Z+7, r1	; 0x07
    2918:	83 81       	ldd	r24, Z+3	; 0x03
    291a:	81 ff       	sbrs	r24, 1
    291c:	cc c1       	rjmp	.+920    	; 0x2cb6 <vfprintf+0x3d8>
    291e:	ce 01       	movw	r24, r28
    2920:	01 96       	adiw	r24, 0x01	; 1
    2922:	3c 01       	movw	r6, r24
    2924:	f6 01       	movw	r30, r12
    2926:	93 81       	ldd	r25, Z+3	; 0x03
    2928:	f7 01       	movw	r30, r14
    292a:	93 fd       	sbrc	r25, 3
    292c:	85 91       	lpm	r24, Z+
    292e:	93 ff       	sbrs	r25, 3
    2930:	81 91       	ld	r24, Z+
    2932:	7f 01       	movw	r14, r30
    2934:	88 23       	and	r24, r24
    2936:	09 f4       	brne	.+2      	; 0x293a <vfprintf+0x5c>
    2938:	ba c1       	rjmp	.+884    	; 0x2cae <vfprintf+0x3d0>
    293a:	85 32       	cpi	r24, 0x25	; 37
    293c:	39 f4       	brne	.+14     	; 0x294c <vfprintf+0x6e>
    293e:	93 fd       	sbrc	r25, 3
    2940:	85 91       	lpm	r24, Z+
    2942:	93 ff       	sbrs	r25, 3
    2944:	81 91       	ld	r24, Z+
    2946:	7f 01       	movw	r14, r30
    2948:	85 32       	cpi	r24, 0x25	; 37
    294a:	29 f4       	brne	.+10     	; 0x2956 <vfprintf+0x78>
    294c:	b6 01       	movw	r22, r12
    294e:	90 e0       	ldi	r25, 0x00	; 0
    2950:	0e 94 89 16 	call	0x2d12	; 0x2d12 <fputc>
    2954:	e7 cf       	rjmp	.-50     	; 0x2924 <vfprintf+0x46>
    2956:	91 2c       	mov	r9, r1
    2958:	21 2c       	mov	r2, r1
    295a:	31 2c       	mov	r3, r1
    295c:	ff e1       	ldi	r31, 0x1F	; 31
    295e:	f3 15       	cp	r31, r3
    2960:	d8 f0       	brcs	.+54     	; 0x2998 <vfprintf+0xba>
    2962:	8b 32       	cpi	r24, 0x2B	; 43
    2964:	79 f0       	breq	.+30     	; 0x2984 <vfprintf+0xa6>
    2966:	38 f4       	brcc	.+14     	; 0x2976 <vfprintf+0x98>
    2968:	80 32       	cpi	r24, 0x20	; 32
    296a:	79 f0       	breq	.+30     	; 0x298a <vfprintf+0xac>
    296c:	83 32       	cpi	r24, 0x23	; 35
    296e:	a1 f4       	brne	.+40     	; 0x2998 <vfprintf+0xba>
    2970:	23 2d       	mov	r18, r3
    2972:	20 61       	ori	r18, 0x10	; 16
    2974:	1d c0       	rjmp	.+58     	; 0x29b0 <vfprintf+0xd2>
    2976:	8d 32       	cpi	r24, 0x2D	; 45
    2978:	61 f0       	breq	.+24     	; 0x2992 <vfprintf+0xb4>
    297a:	80 33       	cpi	r24, 0x30	; 48
    297c:	69 f4       	brne	.+26     	; 0x2998 <vfprintf+0xba>
    297e:	23 2d       	mov	r18, r3
    2980:	21 60       	ori	r18, 0x01	; 1
    2982:	16 c0       	rjmp	.+44     	; 0x29b0 <vfprintf+0xd2>
    2984:	83 2d       	mov	r24, r3
    2986:	82 60       	ori	r24, 0x02	; 2
    2988:	38 2e       	mov	r3, r24
    298a:	e3 2d       	mov	r30, r3
    298c:	e4 60       	ori	r30, 0x04	; 4
    298e:	3e 2e       	mov	r3, r30
    2990:	2a c0       	rjmp	.+84     	; 0x29e6 <vfprintf+0x108>
    2992:	f3 2d       	mov	r31, r3
    2994:	f8 60       	ori	r31, 0x08	; 8
    2996:	1d c0       	rjmp	.+58     	; 0x29d2 <vfprintf+0xf4>
    2998:	37 fc       	sbrc	r3, 7
    299a:	2d c0       	rjmp	.+90     	; 0x29f6 <vfprintf+0x118>
    299c:	20 ed       	ldi	r18, 0xD0	; 208
    299e:	28 0f       	add	r18, r24
    29a0:	2a 30       	cpi	r18, 0x0A	; 10
    29a2:	40 f0       	brcs	.+16     	; 0x29b4 <vfprintf+0xd6>
    29a4:	8e 32       	cpi	r24, 0x2E	; 46
    29a6:	b9 f4       	brne	.+46     	; 0x29d6 <vfprintf+0xf8>
    29a8:	36 fc       	sbrc	r3, 6
    29aa:	81 c1       	rjmp	.+770    	; 0x2cae <vfprintf+0x3d0>
    29ac:	23 2d       	mov	r18, r3
    29ae:	20 64       	ori	r18, 0x40	; 64
    29b0:	32 2e       	mov	r3, r18
    29b2:	19 c0       	rjmp	.+50     	; 0x29e6 <vfprintf+0x108>
    29b4:	36 fe       	sbrs	r3, 6
    29b6:	06 c0       	rjmp	.+12     	; 0x29c4 <vfprintf+0xe6>
    29b8:	8a e0       	ldi	r24, 0x0A	; 10
    29ba:	98 9e       	mul	r9, r24
    29bc:	20 0d       	add	r18, r0
    29be:	11 24       	eor	r1, r1
    29c0:	92 2e       	mov	r9, r18
    29c2:	11 c0       	rjmp	.+34     	; 0x29e6 <vfprintf+0x108>
    29c4:	ea e0       	ldi	r30, 0x0A	; 10
    29c6:	2e 9e       	mul	r2, r30
    29c8:	20 0d       	add	r18, r0
    29ca:	11 24       	eor	r1, r1
    29cc:	22 2e       	mov	r2, r18
    29ce:	f3 2d       	mov	r31, r3
    29d0:	f0 62       	ori	r31, 0x20	; 32
    29d2:	3f 2e       	mov	r3, r31
    29d4:	08 c0       	rjmp	.+16     	; 0x29e6 <vfprintf+0x108>
    29d6:	8c 36       	cpi	r24, 0x6C	; 108
    29d8:	21 f4       	brne	.+8      	; 0x29e2 <vfprintf+0x104>
    29da:	83 2d       	mov	r24, r3
    29dc:	80 68       	ori	r24, 0x80	; 128
    29de:	38 2e       	mov	r3, r24
    29e0:	02 c0       	rjmp	.+4      	; 0x29e6 <vfprintf+0x108>
    29e2:	88 36       	cpi	r24, 0x68	; 104
    29e4:	41 f4       	brne	.+16     	; 0x29f6 <vfprintf+0x118>
    29e6:	f7 01       	movw	r30, r14
    29e8:	93 fd       	sbrc	r25, 3
    29ea:	85 91       	lpm	r24, Z+
    29ec:	93 ff       	sbrs	r25, 3
    29ee:	81 91       	ld	r24, Z+
    29f0:	7f 01       	movw	r14, r30
    29f2:	81 11       	cpse	r24, r1
    29f4:	b3 cf       	rjmp	.-154    	; 0x295c <vfprintf+0x7e>
    29f6:	98 2f       	mov	r25, r24
    29f8:	9f 7d       	andi	r25, 0xDF	; 223
    29fa:	95 54       	subi	r25, 0x45	; 69
    29fc:	93 30       	cpi	r25, 0x03	; 3
    29fe:	28 f4       	brcc	.+10     	; 0x2a0a <vfprintf+0x12c>
    2a00:	0c 5f       	subi	r16, 0xFC	; 252
    2a02:	1f 4f       	sbci	r17, 0xFF	; 255
    2a04:	9f e3       	ldi	r25, 0x3F	; 63
    2a06:	99 83       	std	Y+1, r25	; 0x01
    2a08:	0d c0       	rjmp	.+26     	; 0x2a24 <vfprintf+0x146>
    2a0a:	83 36       	cpi	r24, 0x63	; 99
    2a0c:	31 f0       	breq	.+12     	; 0x2a1a <vfprintf+0x13c>
    2a0e:	83 37       	cpi	r24, 0x73	; 115
    2a10:	71 f0       	breq	.+28     	; 0x2a2e <vfprintf+0x150>
    2a12:	83 35       	cpi	r24, 0x53	; 83
    2a14:	09 f0       	breq	.+2      	; 0x2a18 <vfprintf+0x13a>
    2a16:	59 c0       	rjmp	.+178    	; 0x2aca <vfprintf+0x1ec>
    2a18:	21 c0       	rjmp	.+66     	; 0x2a5c <vfprintf+0x17e>
    2a1a:	f8 01       	movw	r30, r16
    2a1c:	80 81       	ld	r24, Z
    2a1e:	89 83       	std	Y+1, r24	; 0x01
    2a20:	0e 5f       	subi	r16, 0xFE	; 254
    2a22:	1f 4f       	sbci	r17, 0xFF	; 255
    2a24:	88 24       	eor	r8, r8
    2a26:	83 94       	inc	r8
    2a28:	91 2c       	mov	r9, r1
    2a2a:	53 01       	movw	r10, r6
    2a2c:	13 c0       	rjmp	.+38     	; 0x2a54 <vfprintf+0x176>
    2a2e:	28 01       	movw	r4, r16
    2a30:	f2 e0       	ldi	r31, 0x02	; 2
    2a32:	4f 0e       	add	r4, r31
    2a34:	51 1c       	adc	r5, r1
    2a36:	f8 01       	movw	r30, r16
    2a38:	a0 80       	ld	r10, Z
    2a3a:	b1 80       	ldd	r11, Z+1	; 0x01
    2a3c:	36 fe       	sbrs	r3, 6
    2a3e:	03 c0       	rjmp	.+6      	; 0x2a46 <vfprintf+0x168>
    2a40:	69 2d       	mov	r22, r9
    2a42:	70 e0       	ldi	r23, 0x00	; 0
    2a44:	02 c0       	rjmp	.+4      	; 0x2a4a <vfprintf+0x16c>
    2a46:	6f ef       	ldi	r22, 0xFF	; 255
    2a48:	7f ef       	ldi	r23, 0xFF	; 255
    2a4a:	c5 01       	movw	r24, r10
    2a4c:	0e 94 7e 16 	call	0x2cfc	; 0x2cfc <strnlen>
    2a50:	4c 01       	movw	r8, r24
    2a52:	82 01       	movw	r16, r4
    2a54:	f3 2d       	mov	r31, r3
    2a56:	ff 77       	andi	r31, 0x7F	; 127
    2a58:	3f 2e       	mov	r3, r31
    2a5a:	16 c0       	rjmp	.+44     	; 0x2a88 <vfprintf+0x1aa>
    2a5c:	28 01       	movw	r4, r16
    2a5e:	22 e0       	ldi	r18, 0x02	; 2
    2a60:	42 0e       	add	r4, r18
    2a62:	51 1c       	adc	r5, r1
    2a64:	f8 01       	movw	r30, r16
    2a66:	a0 80       	ld	r10, Z
    2a68:	b1 80       	ldd	r11, Z+1	; 0x01
    2a6a:	36 fe       	sbrs	r3, 6
    2a6c:	03 c0       	rjmp	.+6      	; 0x2a74 <vfprintf+0x196>
    2a6e:	69 2d       	mov	r22, r9
    2a70:	70 e0       	ldi	r23, 0x00	; 0
    2a72:	02 c0       	rjmp	.+4      	; 0x2a78 <vfprintf+0x19a>
    2a74:	6f ef       	ldi	r22, 0xFF	; 255
    2a76:	7f ef       	ldi	r23, 0xFF	; 255
    2a78:	c5 01       	movw	r24, r10
    2a7a:	0e 94 73 16 	call	0x2ce6	; 0x2ce6 <strnlen_P>
    2a7e:	4c 01       	movw	r8, r24
    2a80:	f3 2d       	mov	r31, r3
    2a82:	f0 68       	ori	r31, 0x80	; 128
    2a84:	3f 2e       	mov	r3, r31
    2a86:	82 01       	movw	r16, r4
    2a88:	33 fc       	sbrc	r3, 3
    2a8a:	1b c0       	rjmp	.+54     	; 0x2ac2 <vfprintf+0x1e4>
    2a8c:	82 2d       	mov	r24, r2
    2a8e:	90 e0       	ldi	r25, 0x00	; 0
    2a90:	88 16       	cp	r8, r24
    2a92:	99 06       	cpc	r9, r25
    2a94:	b0 f4       	brcc	.+44     	; 0x2ac2 <vfprintf+0x1e4>
    2a96:	b6 01       	movw	r22, r12
    2a98:	80 e2       	ldi	r24, 0x20	; 32
    2a9a:	90 e0       	ldi	r25, 0x00	; 0
    2a9c:	0e 94 89 16 	call	0x2d12	; 0x2d12 <fputc>
    2aa0:	2a 94       	dec	r2
    2aa2:	f4 cf       	rjmp	.-24     	; 0x2a8c <vfprintf+0x1ae>
    2aa4:	f5 01       	movw	r30, r10
    2aa6:	37 fc       	sbrc	r3, 7
    2aa8:	85 91       	lpm	r24, Z+
    2aaa:	37 fe       	sbrs	r3, 7
    2aac:	81 91       	ld	r24, Z+
    2aae:	5f 01       	movw	r10, r30
    2ab0:	b6 01       	movw	r22, r12
    2ab2:	90 e0       	ldi	r25, 0x00	; 0
    2ab4:	0e 94 89 16 	call	0x2d12	; 0x2d12 <fputc>
    2ab8:	21 10       	cpse	r2, r1
    2aba:	2a 94       	dec	r2
    2abc:	21 e0       	ldi	r18, 0x01	; 1
    2abe:	82 1a       	sub	r8, r18
    2ac0:	91 08       	sbc	r9, r1
    2ac2:	81 14       	cp	r8, r1
    2ac4:	91 04       	cpc	r9, r1
    2ac6:	71 f7       	brne	.-36     	; 0x2aa4 <vfprintf+0x1c6>
    2ac8:	e8 c0       	rjmp	.+464    	; 0x2c9a <vfprintf+0x3bc>
    2aca:	84 36       	cpi	r24, 0x64	; 100
    2acc:	11 f0       	breq	.+4      	; 0x2ad2 <vfprintf+0x1f4>
    2ace:	89 36       	cpi	r24, 0x69	; 105
    2ad0:	41 f5       	brne	.+80     	; 0x2b22 <vfprintf+0x244>
    2ad2:	f8 01       	movw	r30, r16
    2ad4:	37 fe       	sbrs	r3, 7
    2ad6:	07 c0       	rjmp	.+14     	; 0x2ae6 <vfprintf+0x208>
    2ad8:	60 81       	ld	r22, Z
    2ada:	71 81       	ldd	r23, Z+1	; 0x01
    2adc:	82 81       	ldd	r24, Z+2	; 0x02
    2ade:	93 81       	ldd	r25, Z+3	; 0x03
    2ae0:	0c 5f       	subi	r16, 0xFC	; 252
    2ae2:	1f 4f       	sbci	r17, 0xFF	; 255
    2ae4:	08 c0       	rjmp	.+16     	; 0x2af6 <vfprintf+0x218>
    2ae6:	60 81       	ld	r22, Z
    2ae8:	71 81       	ldd	r23, Z+1	; 0x01
    2aea:	07 2e       	mov	r0, r23
    2aec:	00 0c       	add	r0, r0
    2aee:	88 0b       	sbc	r24, r24
    2af0:	99 0b       	sbc	r25, r25
    2af2:	0e 5f       	subi	r16, 0xFE	; 254
    2af4:	1f 4f       	sbci	r17, 0xFF	; 255
    2af6:	f3 2d       	mov	r31, r3
    2af8:	ff 76       	andi	r31, 0x6F	; 111
    2afa:	3f 2e       	mov	r3, r31
    2afc:	97 ff       	sbrs	r25, 7
    2afe:	09 c0       	rjmp	.+18     	; 0x2b12 <vfprintf+0x234>
    2b00:	90 95       	com	r25
    2b02:	80 95       	com	r24
    2b04:	70 95       	com	r23
    2b06:	61 95       	neg	r22
    2b08:	7f 4f       	sbci	r23, 0xFF	; 255
    2b0a:	8f 4f       	sbci	r24, 0xFF	; 255
    2b0c:	9f 4f       	sbci	r25, 0xFF	; 255
    2b0e:	f0 68       	ori	r31, 0x80	; 128
    2b10:	3f 2e       	mov	r3, r31
    2b12:	2a e0       	ldi	r18, 0x0A	; 10
    2b14:	30 e0       	ldi	r19, 0x00	; 0
    2b16:	a3 01       	movw	r20, r6
    2b18:	0e 94 c5 16 	call	0x2d8a	; 0x2d8a <__ultoa_invert>
    2b1c:	88 2e       	mov	r8, r24
    2b1e:	86 18       	sub	r8, r6
    2b20:	45 c0       	rjmp	.+138    	; 0x2bac <vfprintf+0x2ce>
    2b22:	85 37       	cpi	r24, 0x75	; 117
    2b24:	31 f4       	brne	.+12     	; 0x2b32 <vfprintf+0x254>
    2b26:	23 2d       	mov	r18, r3
    2b28:	2f 7e       	andi	r18, 0xEF	; 239
    2b2a:	b2 2e       	mov	r11, r18
    2b2c:	2a e0       	ldi	r18, 0x0A	; 10
    2b2e:	30 e0       	ldi	r19, 0x00	; 0
    2b30:	25 c0       	rjmp	.+74     	; 0x2b7c <vfprintf+0x29e>
    2b32:	93 2d       	mov	r25, r3
    2b34:	99 7f       	andi	r25, 0xF9	; 249
    2b36:	b9 2e       	mov	r11, r25
    2b38:	8f 36       	cpi	r24, 0x6F	; 111
    2b3a:	c1 f0       	breq	.+48     	; 0x2b6c <vfprintf+0x28e>
    2b3c:	18 f4       	brcc	.+6      	; 0x2b44 <vfprintf+0x266>
    2b3e:	88 35       	cpi	r24, 0x58	; 88
    2b40:	79 f0       	breq	.+30     	; 0x2b60 <vfprintf+0x282>
    2b42:	b5 c0       	rjmp	.+362    	; 0x2cae <vfprintf+0x3d0>
    2b44:	80 37       	cpi	r24, 0x70	; 112
    2b46:	19 f0       	breq	.+6      	; 0x2b4e <vfprintf+0x270>
    2b48:	88 37       	cpi	r24, 0x78	; 120
    2b4a:	21 f0       	breq	.+8      	; 0x2b54 <vfprintf+0x276>
    2b4c:	b0 c0       	rjmp	.+352    	; 0x2cae <vfprintf+0x3d0>
    2b4e:	e9 2f       	mov	r30, r25
    2b50:	e0 61       	ori	r30, 0x10	; 16
    2b52:	be 2e       	mov	r11, r30
    2b54:	b4 fe       	sbrs	r11, 4
    2b56:	0d c0       	rjmp	.+26     	; 0x2b72 <vfprintf+0x294>
    2b58:	fb 2d       	mov	r31, r11
    2b5a:	f4 60       	ori	r31, 0x04	; 4
    2b5c:	bf 2e       	mov	r11, r31
    2b5e:	09 c0       	rjmp	.+18     	; 0x2b72 <vfprintf+0x294>
    2b60:	34 fe       	sbrs	r3, 4
    2b62:	0a c0       	rjmp	.+20     	; 0x2b78 <vfprintf+0x29a>
    2b64:	29 2f       	mov	r18, r25
    2b66:	26 60       	ori	r18, 0x06	; 6
    2b68:	b2 2e       	mov	r11, r18
    2b6a:	06 c0       	rjmp	.+12     	; 0x2b78 <vfprintf+0x29a>
    2b6c:	28 e0       	ldi	r18, 0x08	; 8
    2b6e:	30 e0       	ldi	r19, 0x00	; 0
    2b70:	05 c0       	rjmp	.+10     	; 0x2b7c <vfprintf+0x29e>
    2b72:	20 e1       	ldi	r18, 0x10	; 16
    2b74:	30 e0       	ldi	r19, 0x00	; 0
    2b76:	02 c0       	rjmp	.+4      	; 0x2b7c <vfprintf+0x29e>
    2b78:	20 e1       	ldi	r18, 0x10	; 16
    2b7a:	32 e0       	ldi	r19, 0x02	; 2
    2b7c:	f8 01       	movw	r30, r16
    2b7e:	b7 fe       	sbrs	r11, 7
    2b80:	07 c0       	rjmp	.+14     	; 0x2b90 <vfprintf+0x2b2>
    2b82:	60 81       	ld	r22, Z
    2b84:	71 81       	ldd	r23, Z+1	; 0x01
    2b86:	82 81       	ldd	r24, Z+2	; 0x02
    2b88:	93 81       	ldd	r25, Z+3	; 0x03
    2b8a:	0c 5f       	subi	r16, 0xFC	; 252
    2b8c:	1f 4f       	sbci	r17, 0xFF	; 255
    2b8e:	06 c0       	rjmp	.+12     	; 0x2b9c <vfprintf+0x2be>
    2b90:	60 81       	ld	r22, Z
    2b92:	71 81       	ldd	r23, Z+1	; 0x01
    2b94:	80 e0       	ldi	r24, 0x00	; 0
    2b96:	90 e0       	ldi	r25, 0x00	; 0
    2b98:	0e 5f       	subi	r16, 0xFE	; 254
    2b9a:	1f 4f       	sbci	r17, 0xFF	; 255
    2b9c:	a3 01       	movw	r20, r6
    2b9e:	0e 94 c5 16 	call	0x2d8a	; 0x2d8a <__ultoa_invert>
    2ba2:	88 2e       	mov	r8, r24
    2ba4:	86 18       	sub	r8, r6
    2ba6:	fb 2d       	mov	r31, r11
    2ba8:	ff 77       	andi	r31, 0x7F	; 127
    2baa:	3f 2e       	mov	r3, r31
    2bac:	36 fe       	sbrs	r3, 6
    2bae:	0d c0       	rjmp	.+26     	; 0x2bca <vfprintf+0x2ec>
    2bb0:	23 2d       	mov	r18, r3
    2bb2:	2e 7f       	andi	r18, 0xFE	; 254
    2bb4:	a2 2e       	mov	r10, r18
    2bb6:	89 14       	cp	r8, r9
    2bb8:	58 f4       	brcc	.+22     	; 0x2bd0 <vfprintf+0x2f2>
    2bba:	34 fe       	sbrs	r3, 4
    2bbc:	0b c0       	rjmp	.+22     	; 0x2bd4 <vfprintf+0x2f6>
    2bbe:	32 fc       	sbrc	r3, 2
    2bc0:	09 c0       	rjmp	.+18     	; 0x2bd4 <vfprintf+0x2f6>
    2bc2:	83 2d       	mov	r24, r3
    2bc4:	8e 7e       	andi	r24, 0xEE	; 238
    2bc6:	a8 2e       	mov	r10, r24
    2bc8:	05 c0       	rjmp	.+10     	; 0x2bd4 <vfprintf+0x2f6>
    2bca:	b8 2c       	mov	r11, r8
    2bcc:	a3 2c       	mov	r10, r3
    2bce:	03 c0       	rjmp	.+6      	; 0x2bd6 <vfprintf+0x2f8>
    2bd0:	b8 2c       	mov	r11, r8
    2bd2:	01 c0       	rjmp	.+2      	; 0x2bd6 <vfprintf+0x2f8>
    2bd4:	b9 2c       	mov	r11, r9
    2bd6:	a4 fe       	sbrs	r10, 4
    2bd8:	0f c0       	rjmp	.+30     	; 0x2bf8 <vfprintf+0x31a>
    2bda:	fe 01       	movw	r30, r28
    2bdc:	e8 0d       	add	r30, r8
    2bde:	f1 1d       	adc	r31, r1
    2be0:	80 81       	ld	r24, Z
    2be2:	80 33       	cpi	r24, 0x30	; 48
    2be4:	21 f4       	brne	.+8      	; 0x2bee <vfprintf+0x310>
    2be6:	9a 2d       	mov	r25, r10
    2be8:	99 7e       	andi	r25, 0xE9	; 233
    2bea:	a9 2e       	mov	r10, r25
    2bec:	09 c0       	rjmp	.+18     	; 0x2c00 <vfprintf+0x322>
    2bee:	a2 fe       	sbrs	r10, 2
    2bf0:	06 c0       	rjmp	.+12     	; 0x2bfe <vfprintf+0x320>
    2bf2:	b3 94       	inc	r11
    2bf4:	b3 94       	inc	r11
    2bf6:	04 c0       	rjmp	.+8      	; 0x2c00 <vfprintf+0x322>
    2bf8:	8a 2d       	mov	r24, r10
    2bfa:	86 78       	andi	r24, 0x86	; 134
    2bfc:	09 f0       	breq	.+2      	; 0x2c00 <vfprintf+0x322>
    2bfe:	b3 94       	inc	r11
    2c00:	a3 fc       	sbrc	r10, 3
    2c02:	11 c0       	rjmp	.+34     	; 0x2c26 <vfprintf+0x348>
    2c04:	a0 fe       	sbrs	r10, 0
    2c06:	06 c0       	rjmp	.+12     	; 0x2c14 <vfprintf+0x336>
    2c08:	b2 14       	cp	r11, r2
    2c0a:	88 f4       	brcc	.+34     	; 0x2c2e <vfprintf+0x350>
    2c0c:	28 0c       	add	r2, r8
    2c0e:	92 2c       	mov	r9, r2
    2c10:	9b 18       	sub	r9, r11
    2c12:	0e c0       	rjmp	.+28     	; 0x2c30 <vfprintf+0x352>
    2c14:	b2 14       	cp	r11, r2
    2c16:	60 f4       	brcc	.+24     	; 0x2c30 <vfprintf+0x352>
    2c18:	b6 01       	movw	r22, r12
    2c1a:	80 e2       	ldi	r24, 0x20	; 32
    2c1c:	90 e0       	ldi	r25, 0x00	; 0
    2c1e:	0e 94 89 16 	call	0x2d12	; 0x2d12 <fputc>
    2c22:	b3 94       	inc	r11
    2c24:	f7 cf       	rjmp	.-18     	; 0x2c14 <vfprintf+0x336>
    2c26:	b2 14       	cp	r11, r2
    2c28:	18 f4       	brcc	.+6      	; 0x2c30 <vfprintf+0x352>
    2c2a:	2b 18       	sub	r2, r11
    2c2c:	02 c0       	rjmp	.+4      	; 0x2c32 <vfprintf+0x354>
    2c2e:	98 2c       	mov	r9, r8
    2c30:	21 2c       	mov	r2, r1
    2c32:	a4 fe       	sbrs	r10, 4
    2c34:	10 c0       	rjmp	.+32     	; 0x2c56 <vfprintf+0x378>
    2c36:	b6 01       	movw	r22, r12
    2c38:	80 e3       	ldi	r24, 0x30	; 48
    2c3a:	90 e0       	ldi	r25, 0x00	; 0
    2c3c:	0e 94 89 16 	call	0x2d12	; 0x2d12 <fputc>
    2c40:	a2 fe       	sbrs	r10, 2
    2c42:	17 c0       	rjmp	.+46     	; 0x2c72 <vfprintf+0x394>
    2c44:	a1 fc       	sbrc	r10, 1
    2c46:	03 c0       	rjmp	.+6      	; 0x2c4e <vfprintf+0x370>
    2c48:	88 e7       	ldi	r24, 0x78	; 120
    2c4a:	90 e0       	ldi	r25, 0x00	; 0
    2c4c:	02 c0       	rjmp	.+4      	; 0x2c52 <vfprintf+0x374>
    2c4e:	88 e5       	ldi	r24, 0x58	; 88
    2c50:	90 e0       	ldi	r25, 0x00	; 0
    2c52:	b6 01       	movw	r22, r12
    2c54:	0c c0       	rjmp	.+24     	; 0x2c6e <vfprintf+0x390>
    2c56:	8a 2d       	mov	r24, r10
    2c58:	86 78       	andi	r24, 0x86	; 134
    2c5a:	59 f0       	breq	.+22     	; 0x2c72 <vfprintf+0x394>
    2c5c:	a1 fe       	sbrs	r10, 1
    2c5e:	02 c0       	rjmp	.+4      	; 0x2c64 <vfprintf+0x386>
    2c60:	8b e2       	ldi	r24, 0x2B	; 43
    2c62:	01 c0       	rjmp	.+2      	; 0x2c66 <vfprintf+0x388>
    2c64:	80 e2       	ldi	r24, 0x20	; 32
    2c66:	a7 fc       	sbrc	r10, 7
    2c68:	8d e2       	ldi	r24, 0x2D	; 45
    2c6a:	b6 01       	movw	r22, r12
    2c6c:	90 e0       	ldi	r25, 0x00	; 0
    2c6e:	0e 94 89 16 	call	0x2d12	; 0x2d12 <fputc>
    2c72:	89 14       	cp	r8, r9
    2c74:	38 f4       	brcc	.+14     	; 0x2c84 <vfprintf+0x3a6>
    2c76:	b6 01       	movw	r22, r12
    2c78:	80 e3       	ldi	r24, 0x30	; 48
    2c7a:	90 e0       	ldi	r25, 0x00	; 0
    2c7c:	0e 94 89 16 	call	0x2d12	; 0x2d12 <fputc>
    2c80:	9a 94       	dec	r9
    2c82:	f7 cf       	rjmp	.-18     	; 0x2c72 <vfprintf+0x394>
    2c84:	8a 94       	dec	r8
    2c86:	f3 01       	movw	r30, r6
    2c88:	e8 0d       	add	r30, r8
    2c8a:	f1 1d       	adc	r31, r1
    2c8c:	80 81       	ld	r24, Z
    2c8e:	b6 01       	movw	r22, r12
    2c90:	90 e0       	ldi	r25, 0x00	; 0
    2c92:	0e 94 89 16 	call	0x2d12	; 0x2d12 <fputc>
    2c96:	81 10       	cpse	r8, r1
    2c98:	f5 cf       	rjmp	.-22     	; 0x2c84 <vfprintf+0x3a6>
    2c9a:	22 20       	and	r2, r2
    2c9c:	09 f4       	brne	.+2      	; 0x2ca0 <vfprintf+0x3c2>
    2c9e:	42 ce       	rjmp	.-892    	; 0x2924 <vfprintf+0x46>
    2ca0:	b6 01       	movw	r22, r12
    2ca2:	80 e2       	ldi	r24, 0x20	; 32
    2ca4:	90 e0       	ldi	r25, 0x00	; 0
    2ca6:	0e 94 89 16 	call	0x2d12	; 0x2d12 <fputc>
    2caa:	2a 94       	dec	r2
    2cac:	f6 cf       	rjmp	.-20     	; 0x2c9a <vfprintf+0x3bc>
    2cae:	f6 01       	movw	r30, r12
    2cb0:	86 81       	ldd	r24, Z+6	; 0x06
    2cb2:	97 81       	ldd	r25, Z+7	; 0x07
    2cb4:	02 c0       	rjmp	.+4      	; 0x2cba <vfprintf+0x3dc>
    2cb6:	8f ef       	ldi	r24, 0xFF	; 255
    2cb8:	9f ef       	ldi	r25, 0xFF	; 255
    2cba:	2b 96       	adiw	r28, 0x0b	; 11
    2cbc:	cd bf       	out	0x3d, r28	; 61
    2cbe:	de bf       	out	0x3e, r29	; 62
    2cc0:	df 91       	pop	r29
    2cc2:	cf 91       	pop	r28
    2cc4:	1f 91       	pop	r17
    2cc6:	0f 91       	pop	r16
    2cc8:	ff 90       	pop	r15
    2cca:	ef 90       	pop	r14
    2ccc:	df 90       	pop	r13
    2cce:	cf 90       	pop	r12
    2cd0:	bf 90       	pop	r11
    2cd2:	af 90       	pop	r10
    2cd4:	9f 90       	pop	r9
    2cd6:	8f 90       	pop	r8
    2cd8:	7f 90       	pop	r7
    2cda:	6f 90       	pop	r6
    2cdc:	5f 90       	pop	r5
    2cde:	4f 90       	pop	r4
    2ce0:	3f 90       	pop	r3
    2ce2:	2f 90       	pop	r2
    2ce4:	08 95       	ret

00002ce6 <strnlen_P>:
    2ce6:	fc 01       	movw	r30, r24
    2ce8:	05 90       	lpm	r0, Z+
    2cea:	61 50       	subi	r22, 0x01	; 1
    2cec:	70 40       	sbci	r23, 0x00	; 0
    2cee:	01 10       	cpse	r0, r1
    2cf0:	d8 f7       	brcc	.-10     	; 0x2ce8 <strnlen_P+0x2>
    2cf2:	80 95       	com	r24
    2cf4:	90 95       	com	r25
    2cf6:	8e 0f       	add	r24, r30
    2cf8:	9f 1f       	adc	r25, r31
    2cfa:	08 95       	ret

00002cfc <strnlen>:
    2cfc:	fc 01       	movw	r30, r24
    2cfe:	61 50       	subi	r22, 0x01	; 1
    2d00:	70 40       	sbci	r23, 0x00	; 0
    2d02:	01 90       	ld	r0, Z+
    2d04:	01 10       	cpse	r0, r1
    2d06:	d8 f7       	brcc	.-10     	; 0x2cfe <strnlen+0x2>
    2d08:	80 95       	com	r24
    2d0a:	90 95       	com	r25
    2d0c:	8e 0f       	add	r24, r30
    2d0e:	9f 1f       	adc	r25, r31
    2d10:	08 95       	ret

00002d12 <fputc>:
    2d12:	0f 93       	push	r16
    2d14:	1f 93       	push	r17
    2d16:	cf 93       	push	r28
    2d18:	df 93       	push	r29
    2d1a:	fb 01       	movw	r30, r22
    2d1c:	23 81       	ldd	r18, Z+3	; 0x03
    2d1e:	21 fd       	sbrc	r18, 1
    2d20:	03 c0       	rjmp	.+6      	; 0x2d28 <fputc+0x16>
    2d22:	8f ef       	ldi	r24, 0xFF	; 255
    2d24:	9f ef       	ldi	r25, 0xFF	; 255
    2d26:	2c c0       	rjmp	.+88     	; 0x2d80 <fputc+0x6e>
    2d28:	22 ff       	sbrs	r18, 2
    2d2a:	16 c0       	rjmp	.+44     	; 0x2d58 <fputc+0x46>
    2d2c:	46 81       	ldd	r20, Z+6	; 0x06
    2d2e:	57 81       	ldd	r21, Z+7	; 0x07
    2d30:	24 81       	ldd	r18, Z+4	; 0x04
    2d32:	35 81       	ldd	r19, Z+5	; 0x05
    2d34:	42 17       	cp	r20, r18
    2d36:	53 07       	cpc	r21, r19
    2d38:	44 f4       	brge	.+16     	; 0x2d4a <fputc+0x38>
    2d3a:	a0 81       	ld	r26, Z
    2d3c:	b1 81       	ldd	r27, Z+1	; 0x01
    2d3e:	9d 01       	movw	r18, r26
    2d40:	2f 5f       	subi	r18, 0xFF	; 255
    2d42:	3f 4f       	sbci	r19, 0xFF	; 255
    2d44:	20 83       	st	Z, r18
    2d46:	31 83       	std	Z+1, r19	; 0x01
    2d48:	8c 93       	st	X, r24
    2d4a:	26 81       	ldd	r18, Z+6	; 0x06
    2d4c:	37 81       	ldd	r19, Z+7	; 0x07
    2d4e:	2f 5f       	subi	r18, 0xFF	; 255
    2d50:	3f 4f       	sbci	r19, 0xFF	; 255
    2d52:	26 83       	std	Z+6, r18	; 0x06
    2d54:	37 83       	std	Z+7, r19	; 0x07
    2d56:	14 c0       	rjmp	.+40     	; 0x2d80 <fputc+0x6e>
    2d58:	8b 01       	movw	r16, r22
    2d5a:	ec 01       	movw	r28, r24
    2d5c:	fb 01       	movw	r30, r22
    2d5e:	00 84       	ldd	r0, Z+8	; 0x08
    2d60:	f1 85       	ldd	r31, Z+9	; 0x09
    2d62:	e0 2d       	mov	r30, r0
    2d64:	09 95       	icall
    2d66:	89 2b       	or	r24, r25
    2d68:	e1 f6       	brne	.-72     	; 0x2d22 <fputc+0x10>
    2d6a:	d8 01       	movw	r26, r16
    2d6c:	16 96       	adiw	r26, 0x06	; 6
    2d6e:	8d 91       	ld	r24, X+
    2d70:	9c 91       	ld	r25, X
    2d72:	17 97       	sbiw	r26, 0x07	; 7
    2d74:	01 96       	adiw	r24, 0x01	; 1
    2d76:	16 96       	adiw	r26, 0x06	; 6
    2d78:	8d 93       	st	X+, r24
    2d7a:	9c 93       	st	X, r25
    2d7c:	17 97       	sbiw	r26, 0x07	; 7
    2d7e:	ce 01       	movw	r24, r28
    2d80:	df 91       	pop	r29
    2d82:	cf 91       	pop	r28
    2d84:	1f 91       	pop	r17
    2d86:	0f 91       	pop	r16
    2d88:	08 95       	ret

00002d8a <__ultoa_invert>:
    2d8a:	fa 01       	movw	r30, r20
    2d8c:	aa 27       	eor	r26, r26
    2d8e:	28 30       	cpi	r18, 0x08	; 8
    2d90:	51 f1       	breq	.+84     	; 0x2de6 <__ultoa_invert+0x5c>
    2d92:	20 31       	cpi	r18, 0x10	; 16
    2d94:	81 f1       	breq	.+96     	; 0x2df6 <__ultoa_invert+0x6c>
    2d96:	e8 94       	clt
    2d98:	6f 93       	push	r22
    2d9a:	6e 7f       	andi	r22, 0xFE	; 254
    2d9c:	6e 5f       	subi	r22, 0xFE	; 254
    2d9e:	7f 4f       	sbci	r23, 0xFF	; 255
    2da0:	8f 4f       	sbci	r24, 0xFF	; 255
    2da2:	9f 4f       	sbci	r25, 0xFF	; 255
    2da4:	af 4f       	sbci	r26, 0xFF	; 255
    2da6:	b1 e0       	ldi	r27, 0x01	; 1
    2da8:	3e d0       	rcall	.+124    	; 0x2e26 <__ultoa_invert+0x9c>
    2daa:	b4 e0       	ldi	r27, 0x04	; 4
    2dac:	3c d0       	rcall	.+120    	; 0x2e26 <__ultoa_invert+0x9c>
    2dae:	67 0f       	add	r22, r23
    2db0:	78 1f       	adc	r23, r24
    2db2:	89 1f       	adc	r24, r25
    2db4:	9a 1f       	adc	r25, r26
    2db6:	a1 1d       	adc	r26, r1
    2db8:	68 0f       	add	r22, r24
    2dba:	79 1f       	adc	r23, r25
    2dbc:	8a 1f       	adc	r24, r26
    2dbe:	91 1d       	adc	r25, r1
    2dc0:	a1 1d       	adc	r26, r1
    2dc2:	6a 0f       	add	r22, r26
    2dc4:	71 1d       	adc	r23, r1
    2dc6:	81 1d       	adc	r24, r1
    2dc8:	91 1d       	adc	r25, r1
    2dca:	a1 1d       	adc	r26, r1
    2dcc:	20 d0       	rcall	.+64     	; 0x2e0e <__ultoa_invert+0x84>
    2dce:	09 f4       	brne	.+2      	; 0x2dd2 <__ultoa_invert+0x48>
    2dd0:	68 94       	set
    2dd2:	3f 91       	pop	r19
    2dd4:	2a e0       	ldi	r18, 0x0A	; 10
    2dd6:	26 9f       	mul	r18, r22
    2dd8:	11 24       	eor	r1, r1
    2dda:	30 19       	sub	r19, r0
    2ddc:	30 5d       	subi	r19, 0xD0	; 208
    2dde:	31 93       	st	Z+, r19
    2de0:	de f6       	brtc	.-74     	; 0x2d98 <__ultoa_invert+0xe>
    2de2:	cf 01       	movw	r24, r30
    2de4:	08 95       	ret
    2de6:	46 2f       	mov	r20, r22
    2de8:	47 70       	andi	r20, 0x07	; 7
    2dea:	40 5d       	subi	r20, 0xD0	; 208
    2dec:	41 93       	st	Z+, r20
    2dee:	b3 e0       	ldi	r27, 0x03	; 3
    2df0:	0f d0       	rcall	.+30     	; 0x2e10 <__ultoa_invert+0x86>
    2df2:	c9 f7       	brne	.-14     	; 0x2de6 <__ultoa_invert+0x5c>
    2df4:	f6 cf       	rjmp	.-20     	; 0x2de2 <__ultoa_invert+0x58>
    2df6:	46 2f       	mov	r20, r22
    2df8:	4f 70       	andi	r20, 0x0F	; 15
    2dfa:	40 5d       	subi	r20, 0xD0	; 208
    2dfc:	4a 33       	cpi	r20, 0x3A	; 58
    2dfe:	18 f0       	brcs	.+6      	; 0x2e06 <__ultoa_invert+0x7c>
    2e00:	49 5d       	subi	r20, 0xD9	; 217
    2e02:	31 fd       	sbrc	r19, 1
    2e04:	40 52       	subi	r20, 0x20	; 32
    2e06:	41 93       	st	Z+, r20
    2e08:	02 d0       	rcall	.+4      	; 0x2e0e <__ultoa_invert+0x84>
    2e0a:	a9 f7       	brne	.-22     	; 0x2df6 <__ultoa_invert+0x6c>
    2e0c:	ea cf       	rjmp	.-44     	; 0x2de2 <__ultoa_invert+0x58>
    2e0e:	b4 e0       	ldi	r27, 0x04	; 4
    2e10:	a6 95       	lsr	r26
    2e12:	97 95       	ror	r25
    2e14:	87 95       	ror	r24
    2e16:	77 95       	ror	r23
    2e18:	67 95       	ror	r22
    2e1a:	ba 95       	dec	r27
    2e1c:	c9 f7       	brne	.-14     	; 0x2e10 <__ultoa_invert+0x86>
    2e1e:	00 97       	sbiw	r24, 0x00	; 0
    2e20:	61 05       	cpc	r22, r1
    2e22:	71 05       	cpc	r23, r1
    2e24:	08 95       	ret
    2e26:	9b 01       	movw	r18, r22
    2e28:	ac 01       	movw	r20, r24
    2e2a:	0a 2e       	mov	r0, r26
    2e2c:	06 94       	lsr	r0
    2e2e:	57 95       	ror	r21
    2e30:	47 95       	ror	r20
    2e32:	37 95       	ror	r19
    2e34:	27 95       	ror	r18
    2e36:	ba 95       	dec	r27
    2e38:	c9 f7       	brne	.-14     	; 0x2e2c <__ultoa_invert+0xa2>
    2e3a:	62 0f       	add	r22, r18
    2e3c:	73 1f       	adc	r23, r19
    2e3e:	84 1f       	adc	r24, r20
    2e40:	95 1f       	adc	r25, r21
    2e42:	a0 1d       	adc	r26, r0
    2e44:	08 95       	ret

00002e46 <_exit>:
    2e46:	f8 94       	cli

00002e48 <__stop_program>:
    2e48:	ff cf       	rjmp	.-2      	; 0x2e48 <__stop_program>
